ARM GAS  C:\Users\JAKOVB~2\AppData\Local\Temp\ccztSlne.s 			page 1


   1              		.syntax unified
   2              		.cpu cortex-m3
   3              		.fpu softvfp
   4              		.eabi_attribute 20, 1
   5              		.eabi_attribute 21, 1
   6              		.eabi_attribute 23, 3
   7              		.eabi_attribute 24, 1
   8              		.eabi_attribute 25, 1
   9              		.eabi_attribute 26, 1
  10              		.eabi_attribute 30, 6
  11              		.eabi_attribute 34, 1
  12              		.eabi_attribute 18, 4
  13              		.thumb
  14              		.syntax unified
  15              		.file	"cyfitter_cfg.c"
  16              		.text
  17              	.Ltext0:
  18              		.cfi_sections	.debug_frame
  19              		.section	.text.CYMEMZERO,"ax",%progbits
  20              		.align	2
  21              		.thumb
  22              		.thumb_func
  23              		.type	CYMEMZERO, %function
  24              	CYMEMZERO:
  25              	.LFB0:
  26              		.file 1 "Generated_Source\\PSoC5\\cyfitter_cfg.c"
   1:Generated_Source\PSoC5/cyfitter_cfg.c **** 
   2:Generated_Source\PSoC5/cyfitter_cfg.c **** /*******************************************************************************
   3:Generated_Source\PSoC5/cyfitter_cfg.c **** * File Name: cyfitter_cfg.c
   4:Generated_Source\PSoC5/cyfitter_cfg.c **** * 
   5:Generated_Source\PSoC5/cyfitter_cfg.c **** * PSoC Creator  4.2
   6:Generated_Source\PSoC5/cyfitter_cfg.c **** *
   7:Generated_Source\PSoC5/cyfitter_cfg.c **** * Description:
   8:Generated_Source\PSoC5/cyfitter_cfg.c **** * This file contains device initialization code.
   9:Generated_Source\PSoC5/cyfitter_cfg.c **** * Except for the user defined sections in CyClockStartupError(), this file should not be modified.
  10:Generated_Source\PSoC5/cyfitter_cfg.c **** * This file is automatically generated by PSoC Creator.
  11:Generated_Source\PSoC5/cyfitter_cfg.c **** *
  12:Generated_Source\PSoC5/cyfitter_cfg.c **** ********************************************************************************
  13:Generated_Source\PSoC5/cyfitter_cfg.c **** * Copyright (c) 2007-2018 Cypress Semiconductor.  All rights reserved.
  14:Generated_Source\PSoC5/cyfitter_cfg.c **** * You may use this file only in accordance with the license, terms, conditions, 
  15:Generated_Source\PSoC5/cyfitter_cfg.c **** * disclaimers, and limitations in the end user license agreement accompanying 
  16:Generated_Source\PSoC5/cyfitter_cfg.c **** * the software package with which this file was provided.
  17:Generated_Source\PSoC5/cyfitter_cfg.c **** ********************************************************************************/
  18:Generated_Source\PSoC5/cyfitter_cfg.c **** 
  19:Generated_Source\PSoC5/cyfitter_cfg.c **** #include <string.h>
  20:Generated_Source\PSoC5/cyfitter_cfg.c **** #include "cytypes.h"
  21:Generated_Source\PSoC5/cyfitter_cfg.c **** #include "cydevice_trm.h"
  22:Generated_Source\PSoC5/cyfitter_cfg.c **** #include "cyfitter.h"
  23:Generated_Source\PSoC5/cyfitter_cfg.c **** #include "CyLib.h"
  24:Generated_Source\PSoC5/cyfitter_cfg.c **** #include "cyfitter_cfg.h"
  25:Generated_Source\PSoC5/cyfitter_cfg.c **** #include "cyapicallbacks.h"
  26:Generated_Source\PSoC5/cyfitter_cfg.c **** 
  27:Generated_Source\PSoC5/cyfitter_cfg.c **** #define CY_NEED_CYCLOCKSTARTUPERROR 1
  28:Generated_Source\PSoC5/cyfitter_cfg.c **** 
  29:Generated_Source\PSoC5/cyfitter_cfg.c **** 
  30:Generated_Source\PSoC5/cyfitter_cfg.c **** #if defined(__GNUC__) || defined(__ARMCC_VERSION)
  31:Generated_Source\PSoC5/cyfitter_cfg.c ****     #define CYPACKED 
ARM GAS  C:\Users\JAKOVB~2\AppData\Local\Temp\ccztSlne.s 			page 2


  32:Generated_Source\PSoC5/cyfitter_cfg.c ****     #define CYPACKED_ATTR __attribute__ ((packed))
  33:Generated_Source\PSoC5/cyfitter_cfg.c ****     #define CYALIGNED __attribute__ ((aligned))
  34:Generated_Source\PSoC5/cyfitter_cfg.c ****     #define CY_CFG_UNUSED __attribute__ ((unused))
  35:Generated_Source\PSoC5/cyfitter_cfg.c ****     #ifndef CY_CFG_SECTION
  36:Generated_Source\PSoC5/cyfitter_cfg.c ****         #define CY_CFG_SECTION __attribute__ ((section(".psocinit")))
  37:Generated_Source\PSoC5/cyfitter_cfg.c ****     #endif
  38:Generated_Source\PSoC5/cyfitter_cfg.c ****     
  39:Generated_Source\PSoC5/cyfitter_cfg.c ****     #if defined(__ARMCC_VERSION)
  40:Generated_Source\PSoC5/cyfitter_cfg.c ****         #define CY_CFG_MEMORY_BARRIER() __memory_changed()
  41:Generated_Source\PSoC5/cyfitter_cfg.c ****     #else
  42:Generated_Source\PSoC5/cyfitter_cfg.c ****         #define CY_CFG_MEMORY_BARRIER() __sync_synchronize()
  43:Generated_Source\PSoC5/cyfitter_cfg.c ****     #endif
  44:Generated_Source\PSoC5/cyfitter_cfg.c ****     
  45:Generated_Source\PSoC5/cyfitter_cfg.c **** #elif defined(__ICCARM__)
  46:Generated_Source\PSoC5/cyfitter_cfg.c ****     #include <intrinsics.h>
  47:Generated_Source\PSoC5/cyfitter_cfg.c **** 
  48:Generated_Source\PSoC5/cyfitter_cfg.c ****     #define CYPACKED __packed
  49:Generated_Source\PSoC5/cyfitter_cfg.c ****     #define CYPACKED_ATTR 
  50:Generated_Source\PSoC5/cyfitter_cfg.c ****     #define CYALIGNED _Pragma("data_alignment=4")
  51:Generated_Source\PSoC5/cyfitter_cfg.c ****     #define CY_CFG_UNUSED _Pragma("diag_suppress=Pe177")
  52:Generated_Source\PSoC5/cyfitter_cfg.c ****     #define CY_CFG_SECTION _Pragma("location=\".psocinit\"")
  53:Generated_Source\PSoC5/cyfitter_cfg.c ****     
  54:Generated_Source\PSoC5/cyfitter_cfg.c ****     #define CY_CFG_MEMORY_BARRIER() __DMB()
  55:Generated_Source\PSoC5/cyfitter_cfg.c ****     
  56:Generated_Source\PSoC5/cyfitter_cfg.c **** #else
  57:Generated_Source\PSoC5/cyfitter_cfg.c ****     #error Unsupported toolchain
  58:Generated_Source\PSoC5/cyfitter_cfg.c **** #endif
  59:Generated_Source\PSoC5/cyfitter_cfg.c **** 
  60:Generated_Source\PSoC5/cyfitter_cfg.c **** #ifndef CYCODE
  61:Generated_Source\PSoC5/cyfitter_cfg.c ****     #define CYCODE
  62:Generated_Source\PSoC5/cyfitter_cfg.c **** #endif
  63:Generated_Source\PSoC5/cyfitter_cfg.c **** #ifndef CYDATA
  64:Generated_Source\PSoC5/cyfitter_cfg.c ****     #define CYDATA
  65:Generated_Source\PSoC5/cyfitter_cfg.c **** #endif
  66:Generated_Source\PSoC5/cyfitter_cfg.c **** #ifndef CYFAR
  67:Generated_Source\PSoC5/cyfitter_cfg.c ****     #define CYFAR
  68:Generated_Source\PSoC5/cyfitter_cfg.c **** #endif
  69:Generated_Source\PSoC5/cyfitter_cfg.c **** #ifndef CYXDATA
  70:Generated_Source\PSoC5/cyfitter_cfg.c ****     #define CYXDATA
  71:Generated_Source\PSoC5/cyfitter_cfg.c **** #endif
  72:Generated_Source\PSoC5/cyfitter_cfg.c **** 
  73:Generated_Source\PSoC5/cyfitter_cfg.c **** 
  74:Generated_Source\PSoC5/cyfitter_cfg.c **** CY_CFG_UNUSED
  75:Generated_Source\PSoC5/cyfitter_cfg.c **** static void CYMEMZERO(void *s, size_t n);
  76:Generated_Source\PSoC5/cyfitter_cfg.c **** CY_CFG_UNUSED
  77:Generated_Source\PSoC5/cyfitter_cfg.c **** static void CYMEMZERO(void *s, size_t n)
  78:Generated_Source\PSoC5/cyfitter_cfg.c **** {
  27              		.loc 1 78 0
  28              		.cfi_startproc
  29              		@ args = 0, pretend = 0, frame = 8
  30              		@ frame_needed = 1, uses_anonymous_args = 0
  31 0000 80B5     		push	{r7, lr}
  32              		.cfi_def_cfa_offset 8
  33              		.cfi_offset 7, -8
  34              		.cfi_offset 14, -4
  35 0002 82B0     		sub	sp, sp, #8
  36              		.cfi_def_cfa_offset 16
ARM GAS  C:\Users\JAKOVB~2\AppData\Local\Temp\ccztSlne.s 			page 3


  37 0004 00AF     		add	r7, sp, #0
  38              		.cfi_def_cfa_register 7
  39 0006 7860     		str	r0, [r7, #4]
  40 0008 3960     		str	r1, [r7]
  79:Generated_Source\PSoC5/cyfitter_cfg.c **** 	(void)memset(s, 0, n);
  41              		.loc 1 79 0
  42 000a 3A68     		ldr	r2, [r7]
  43 000c 0021     		movs	r1, #0
  44 000e 7868     		ldr	r0, [r7, #4]
  45 0010 FFF7FEFF 		bl	memset
  80:Generated_Source\PSoC5/cyfitter_cfg.c **** }
  46              		.loc 1 80 0
  47 0014 00BF     		nop
  48 0016 0837     		adds	r7, r7, #8
  49              		.cfi_def_cfa_offset 8
  50 0018 BD46     		mov	sp, r7
  51              		.cfi_def_cfa_register 13
  52              		@ sp needed
  53 001a 80BD     		pop	{r7, pc}
  54              		.cfi_endproc
  55              	.LFE0:
  56              		.size	CYMEMZERO, .-CYMEMZERO
  57              		.section	.text.CYCONFIGCPY,"ax",%progbits
  58              		.align	2
  59              		.thumb
  60              		.thumb_func
  61              		.type	CYCONFIGCPY, %function
  62              	CYCONFIGCPY:
  63              	.LFB1:
  81:Generated_Source\PSoC5/cyfitter_cfg.c **** CY_CFG_UNUSED
  82:Generated_Source\PSoC5/cyfitter_cfg.c **** static void CYCONFIGCPY(void *dest, const void *src, size_t n);
  83:Generated_Source\PSoC5/cyfitter_cfg.c **** CY_CFG_UNUSED
  84:Generated_Source\PSoC5/cyfitter_cfg.c **** static void CYCONFIGCPY(void *dest, const void *src, size_t n)
  85:Generated_Source\PSoC5/cyfitter_cfg.c **** {
  64              		.loc 1 85 0
  65              		.cfi_startproc
  66              		@ args = 0, pretend = 0, frame = 16
  67              		@ frame_needed = 1, uses_anonymous_args = 0
  68 0000 80B5     		push	{r7, lr}
  69              		.cfi_def_cfa_offset 8
  70              		.cfi_offset 7, -8
  71              		.cfi_offset 14, -4
  72 0002 84B0     		sub	sp, sp, #16
  73              		.cfi_def_cfa_offset 24
  74 0004 00AF     		add	r7, sp, #0
  75              		.cfi_def_cfa_register 7
  76 0006 F860     		str	r0, [r7, #12]
  77 0008 B960     		str	r1, [r7, #8]
  78 000a 7A60     		str	r2, [r7, #4]
  86:Generated_Source\PSoC5/cyfitter_cfg.c **** 	(void)memcpy(dest, src, n);
  79              		.loc 1 86 0
  80 000c 7A68     		ldr	r2, [r7, #4]
  81 000e B968     		ldr	r1, [r7, #8]
  82 0010 F868     		ldr	r0, [r7, #12]
  83 0012 FFF7FEFF 		bl	memcpy
  87:Generated_Source\PSoC5/cyfitter_cfg.c **** }
  84              		.loc 1 87 0
ARM GAS  C:\Users\JAKOVB~2\AppData\Local\Temp\ccztSlne.s 			page 4


  85 0016 00BF     		nop
  86 0018 1037     		adds	r7, r7, #16
  87              		.cfi_def_cfa_offset 8
  88 001a BD46     		mov	sp, r7
  89              		.cfi_def_cfa_register 13
  90              		@ sp needed
  91 001c 80BD     		pop	{r7, pc}
  92              		.cfi_endproc
  93              	.LFE1:
  94              		.size	CYCONFIGCPY, .-CYCONFIGCPY
  95 001e 00BF     		.section	.text.CYCONFIGCPYCODE,"ax",%progbits
  96              		.align	2
  97              		.thumb
  98              		.thumb_func
  99              		.type	CYCONFIGCPYCODE, %function
 100              	CYCONFIGCPYCODE:
 101              	.LFB2:
  88:Generated_Source\PSoC5/cyfitter_cfg.c **** CY_CFG_UNUSED
  89:Generated_Source\PSoC5/cyfitter_cfg.c **** static void CYCONFIGCPYCODE(void *dest, const void *src, size_t n);
  90:Generated_Source\PSoC5/cyfitter_cfg.c **** CY_CFG_UNUSED
  91:Generated_Source\PSoC5/cyfitter_cfg.c **** static void CYCONFIGCPYCODE(void *dest, const void *src, size_t n)
  92:Generated_Source\PSoC5/cyfitter_cfg.c **** {
 102              		.loc 1 92 0
 103              		.cfi_startproc
 104              		@ args = 0, pretend = 0, frame = 16
 105              		@ frame_needed = 1, uses_anonymous_args = 0
 106 0000 80B5     		push	{r7, lr}
 107              		.cfi_def_cfa_offset 8
 108              		.cfi_offset 7, -8
 109              		.cfi_offset 14, -4
 110 0002 84B0     		sub	sp, sp, #16
 111              		.cfi_def_cfa_offset 24
 112 0004 00AF     		add	r7, sp, #0
 113              		.cfi_def_cfa_register 7
 114 0006 F860     		str	r0, [r7, #12]
 115 0008 B960     		str	r1, [r7, #8]
 116 000a 7A60     		str	r2, [r7, #4]
  93:Generated_Source\PSoC5/cyfitter_cfg.c **** 	(void)memcpy(dest, src, n);
 117              		.loc 1 93 0
 118 000c 7A68     		ldr	r2, [r7, #4]
 119 000e B968     		ldr	r1, [r7, #8]
 120 0010 F868     		ldr	r0, [r7, #12]
 121 0012 FFF7FEFF 		bl	memcpy
  94:Generated_Source\PSoC5/cyfitter_cfg.c **** }
 122              		.loc 1 94 0
 123 0016 00BF     		nop
 124 0018 1037     		adds	r7, r7, #16
 125              		.cfi_def_cfa_offset 8
 126 001a BD46     		mov	sp, r7
 127              		.cfi_def_cfa_register 13
 128              		@ sp needed
 129 001c 80BD     		pop	{r7, pc}
 130              		.cfi_endproc
 131              	.LFE2:
 132              		.size	CYCONFIGCPYCODE, .-CYCONFIGCPYCODE
 133 001e 00BF     		.section	.text.CyClockStartupError,"ax",%progbits
 134              		.align	2
ARM GAS  C:\Users\JAKOVB~2\AppData\Local\Temp\ccztSlne.s 			page 5


 135              		.thumb
 136              		.thumb_func
 137              		.type	CyClockStartupError, %function
 138              	CyClockStartupError:
 139              	.LFB3:
  95:Generated_Source\PSoC5/cyfitter_cfg.c **** 
  96:Generated_Source\PSoC5/cyfitter_cfg.c **** 
  97:Generated_Source\PSoC5/cyfitter_cfg.c **** 
  98:Generated_Source\PSoC5/cyfitter_cfg.c **** 
  99:Generated_Source\PSoC5/cyfitter_cfg.c **** /* Clock startup error codes                                                   */
 100:Generated_Source\PSoC5/cyfitter_cfg.c **** #define CYCLOCKSTART_NO_ERROR    0u
 101:Generated_Source\PSoC5/cyfitter_cfg.c **** #define CYCLOCKSTART_XTAL_ERROR  1u
 102:Generated_Source\PSoC5/cyfitter_cfg.c **** #define CYCLOCKSTART_32KHZ_ERROR 2u
 103:Generated_Source\PSoC5/cyfitter_cfg.c **** #define CYCLOCKSTART_PLL_ERROR   3u
 104:Generated_Source\PSoC5/cyfitter_cfg.c **** #define CYCLOCKSTART_FLL_ERROR   4u
 105:Generated_Source\PSoC5/cyfitter_cfg.c **** #define CYCLOCKSTART_WCO_ERROR   5u
 106:Generated_Source\PSoC5/cyfitter_cfg.c **** 
 107:Generated_Source\PSoC5/cyfitter_cfg.c **** 
 108:Generated_Source\PSoC5/cyfitter_cfg.c **** #ifdef CY_NEED_CYCLOCKSTARTUPERROR
 109:Generated_Source\PSoC5/cyfitter_cfg.c **** /*******************************************************************************
 110:Generated_Source\PSoC5/cyfitter_cfg.c **** * Function Name: CyClockStartupError
 111:Generated_Source\PSoC5/cyfitter_cfg.c **** ********************************************************************************
 112:Generated_Source\PSoC5/cyfitter_cfg.c **** * Summary:
 113:Generated_Source\PSoC5/cyfitter_cfg.c **** *  If an error is encountered during clock configuration (crystal startup error,
 114:Generated_Source\PSoC5/cyfitter_cfg.c **** *  PLL lock error, etc.), the system will end up here.  Unless reimplemented by
 115:Generated_Source\PSoC5/cyfitter_cfg.c **** *  the customer, this function will stop in an infinite loop.
 116:Generated_Source\PSoC5/cyfitter_cfg.c **** *
 117:Generated_Source\PSoC5/cyfitter_cfg.c **** * Parameters:
 118:Generated_Source\PSoC5/cyfitter_cfg.c **** *   void
 119:Generated_Source\PSoC5/cyfitter_cfg.c **** *
 120:Generated_Source\PSoC5/cyfitter_cfg.c **** * Return:
 121:Generated_Source\PSoC5/cyfitter_cfg.c **** *   void
 122:Generated_Source\PSoC5/cyfitter_cfg.c **** *
 123:Generated_Source\PSoC5/cyfitter_cfg.c **** *******************************************************************************/
 124:Generated_Source\PSoC5/cyfitter_cfg.c **** CY_CFG_UNUSED
 125:Generated_Source\PSoC5/cyfitter_cfg.c **** static void CyClockStartupError(uint8 errorCode);
 126:Generated_Source\PSoC5/cyfitter_cfg.c **** CY_CFG_UNUSED
 127:Generated_Source\PSoC5/cyfitter_cfg.c **** static void CyClockStartupError(uint8 errorCode)
 128:Generated_Source\PSoC5/cyfitter_cfg.c **** {
 140              		.loc 1 128 0
 141              		.cfi_startproc
 142              		@ args = 0, pretend = 0, frame = 8
 143              		@ frame_needed = 1, uses_anonymous_args = 0
 144              		@ link register save eliminated.
 145 0000 80B4     		push	{r7}
 146              		.cfi_def_cfa_offset 4
 147              		.cfi_offset 7, -4
 148 0002 83B0     		sub	sp, sp, #12
 149              		.cfi_def_cfa_offset 16
 150 0004 00AF     		add	r7, sp, #0
 151              		.cfi_def_cfa_register 7
 152 0006 0346     		mov	r3, r0
 153 0008 FB71     		strb	r3, [r7, #7]
 154              	.L5:
 129:Generated_Source\PSoC5/cyfitter_cfg.c ****     /* To remove the compiler warning if errorCode not used.                */
 130:Generated_Source\PSoC5/cyfitter_cfg.c ****     errorCode = errorCode;
 131:Generated_Source\PSoC5/cyfitter_cfg.c **** 
ARM GAS  C:\Users\JAKOVB~2\AppData\Local\Temp\ccztSlne.s 			page 6


 132:Generated_Source\PSoC5/cyfitter_cfg.c ****     /* If we have a clock startup error (bad MHz crystal, PLL lock, etc.),  */
 133:Generated_Source\PSoC5/cyfitter_cfg.c ****     /* we will end up here to allow the customer to implement something to  */
 134:Generated_Source\PSoC5/cyfitter_cfg.c ****     /* deal with the clock condition.                                       */
 135:Generated_Source\PSoC5/cyfitter_cfg.c **** 
 136:Generated_Source\PSoC5/cyfitter_cfg.c **** #ifdef CY_CFG_CLOCK_STARTUP_ERROR_CALLBACK
 137:Generated_Source\PSoC5/cyfitter_cfg.c ****     CY_CFG_Clock_Startup_ErrorCallback();
 138:Generated_Source\PSoC5/cyfitter_cfg.c **** #else
 139:Generated_Source\PSoC5/cyfitter_cfg.c ****     /*  If not using CY_CFG_CLOCK_STARTUP_ERROR_CALLBACK, place your clock startup code here. */
 140:Generated_Source\PSoC5/cyfitter_cfg.c ****     /* `#START CyClockStartupError` */
 141:Generated_Source\PSoC5/cyfitter_cfg.c **** 
 142:Generated_Source\PSoC5/cyfitter_cfg.c **** 
 143:Generated_Source\PSoC5/cyfitter_cfg.c **** 
 144:Generated_Source\PSoC5/cyfitter_cfg.c ****     /* `#END` */
 145:Generated_Source\PSoC5/cyfitter_cfg.c **** 
 146:Generated_Source\PSoC5/cyfitter_cfg.c ****     while(1) {}
 155              		.loc 1 146 0 discriminator 1
 156 000a FEE7     		b	.L5
 157              		.cfi_endproc
 158              	.LFE3:
 159              		.size	CyClockStartupError, .-CyClockStartupError
 160              		.section	.text.cfg_write_bytes32,"ax",%progbits
 161              		.align	2
 162              		.thumb
 163              		.thumb_func
 164              		.type	cfg_write_bytes32, %function
 165              	cfg_write_bytes32:
 166              	.LFB4:
 147:Generated_Source\PSoC5/cyfitter_cfg.c **** #endif /* CY_CFG_CLOCK_STARTUP_ERROR_CALLBACK */
 148:Generated_Source\PSoC5/cyfitter_cfg.c **** }
 149:Generated_Source\PSoC5/cyfitter_cfg.c **** #endif
 150:Generated_Source\PSoC5/cyfitter_cfg.c **** 
 151:Generated_Source\PSoC5/cyfitter_cfg.c **** #define CY_CFG_BASE_ADDR_COUNT 26u
 152:Generated_Source\PSoC5/cyfitter_cfg.c **** CYPACKED typedef struct
 153:Generated_Source\PSoC5/cyfitter_cfg.c **** {
 154:Generated_Source\PSoC5/cyfitter_cfg.c **** 	uint8 offset;
 155:Generated_Source\PSoC5/cyfitter_cfg.c **** 	uint8 value;
 156:Generated_Source\PSoC5/cyfitter_cfg.c **** } CYPACKED_ATTR cy_cfg_addrvalue_t;
 157:Generated_Source\PSoC5/cyfitter_cfg.c **** 
 158:Generated_Source\PSoC5/cyfitter_cfg.c **** 
 159:Generated_Source\PSoC5/cyfitter_cfg.c **** 
 160:Generated_Source\PSoC5/cyfitter_cfg.c **** /*******************************************************************************
 161:Generated_Source\PSoC5/cyfitter_cfg.c **** * Function Name: cfg_write_bytes32
 162:Generated_Source\PSoC5/cyfitter_cfg.c **** ********************************************************************************
 163:Generated_Source\PSoC5/cyfitter_cfg.c **** * Summary:
 164:Generated_Source\PSoC5/cyfitter_cfg.c **** *  This function is used for setting up the chip configuration areas that
 165:Generated_Source\PSoC5/cyfitter_cfg.c **** *  contain relatively sparse data.
 166:Generated_Source\PSoC5/cyfitter_cfg.c **** *
 167:Generated_Source\PSoC5/cyfitter_cfg.c **** * Parameters:
 168:Generated_Source\PSoC5/cyfitter_cfg.c **** *   void
 169:Generated_Source\PSoC5/cyfitter_cfg.c **** *
 170:Generated_Source\PSoC5/cyfitter_cfg.c **** * Return:
 171:Generated_Source\PSoC5/cyfitter_cfg.c **** *   void
 172:Generated_Source\PSoC5/cyfitter_cfg.c **** *
 173:Generated_Source\PSoC5/cyfitter_cfg.c **** *******************************************************************************/
 174:Generated_Source\PSoC5/cyfitter_cfg.c **** static void cfg_write_bytes32(const uint32 addr_table[], const cy_cfg_addrvalue_t data_table[]);
 175:Generated_Source\PSoC5/cyfitter_cfg.c **** static void cfg_write_bytes32(const uint32 addr_table[], const cy_cfg_addrvalue_t data_table[])
 176:Generated_Source\PSoC5/cyfitter_cfg.c **** {
ARM GAS  C:\Users\JAKOVB~2\AppData\Local\Temp\ccztSlne.s 			page 7


 167              		.loc 1 176 0
 168              		.cfi_startproc
 169              		@ args = 0, pretend = 0, frame = 24
 170              		@ frame_needed = 1, uses_anonymous_args = 0
 171              		@ link register save eliminated.
 172 0000 80B4     		push	{r7}
 173              		.cfi_def_cfa_offset 4
 174              		.cfi_offset 7, -4
 175 0002 87B0     		sub	sp, sp, #28
 176              		.cfi_def_cfa_offset 32
 177 0004 00AF     		add	r7, sp, #0
 178              		.cfi_def_cfa_register 7
 179 0006 7860     		str	r0, [r7, #4]
 180 0008 3960     		str	r1, [r7]
 177:Generated_Source\PSoC5/cyfitter_cfg.c **** 	/* For 32-bit little-endian architectures */
 178:Generated_Source\PSoC5/cyfitter_cfg.c **** 	uint32 i, j = 0u;
 181              		.loc 1 178 0
 182 000a 0023     		movs	r3, #0
 183 000c 3B61     		str	r3, [r7, #16]
 179:Generated_Source\PSoC5/cyfitter_cfg.c **** 	for (i = 0u; i < CY_CFG_BASE_ADDR_COUNT; i++)
 184              		.loc 1 179 0
 185 000e 0023     		movs	r3, #0
 186 0010 7B61     		str	r3, [r7, #20]
 187 0012 27E0     		b	.L7
 188              	.L10:
 189              	.LBB2:
 180:Generated_Source\PSoC5/cyfitter_cfg.c **** 	{
 181:Generated_Source\PSoC5/cyfitter_cfg.c **** 		uint32 baseAddr = addr_table[i];
 190              		.loc 1 181 0
 191 0014 7B69     		ldr	r3, [r7, #20]
 192 0016 9B00     		lsls	r3, r3, #2
 193 0018 7A68     		ldr	r2, [r7, #4]
 194 001a 1344     		add	r3, r3, r2
 195 001c 1B68     		ldr	r3, [r3]
 196 001e BB60     		str	r3, [r7, #8]
 182:Generated_Source\PSoC5/cyfitter_cfg.c **** 		uint8 count = (uint8)baseAddr;
 197              		.loc 1 182 0
 198 0020 BB68     		ldr	r3, [r7, #8]
 199 0022 FB73     		strb	r3, [r7, #15]
 183:Generated_Source\PSoC5/cyfitter_cfg.c **** 		baseAddr &= 0xFFFFFF00u;
 200              		.loc 1 183 0
 201 0024 BB68     		ldr	r3, [r7, #8]
 202 0026 23F0FF03 		bic	r3, r3, #255
 203 002a BB60     		str	r3, [r7, #8]
 184:Generated_Source\PSoC5/cyfitter_cfg.c **** 		while (count != 0u)
 204              		.loc 1 184 0
 205 002c 14E0     		b	.L8
 206              	.L9:
 185:Generated_Source\PSoC5/cyfitter_cfg.c **** 		{
 186:Generated_Source\PSoC5/cyfitter_cfg.c **** 			CY_SET_REG8((void *)(baseAddr + data_table[j].offset), data_table[j].value);
 207              		.loc 1 186 0
 208 002e 3B69     		ldr	r3, [r7, #16]
 209 0030 5B00     		lsls	r3, r3, #1
 210 0032 3A68     		ldr	r2, [r7]
 211 0034 1344     		add	r3, r3, r2
 212 0036 1B78     		ldrb	r3, [r3]	@ zero_extendqisi2
 213 0038 1A46     		mov	r2, r3
ARM GAS  C:\Users\JAKOVB~2\AppData\Local\Temp\ccztSlne.s 			page 8


 214 003a BB68     		ldr	r3, [r7, #8]
 215 003c 1344     		add	r3, r3, r2
 216 003e 1946     		mov	r1, r3
 217 0040 3B69     		ldr	r3, [r7, #16]
 218 0042 5B00     		lsls	r3, r3, #1
 219 0044 3A68     		ldr	r2, [r7]
 220 0046 1344     		add	r3, r3, r2
 221 0048 5B78     		ldrb	r3, [r3, #1]	@ zero_extendqisi2
 222 004a 0B70     		strb	r3, [r1]
 187:Generated_Source\PSoC5/cyfitter_cfg.c **** 			j++;
 223              		.loc 1 187 0
 224 004c 3B69     		ldr	r3, [r7, #16]
 225 004e 0133     		adds	r3, r3, #1
 226 0050 3B61     		str	r3, [r7, #16]
 188:Generated_Source\PSoC5/cyfitter_cfg.c **** 			count--;
 227              		.loc 1 188 0
 228 0052 FB7B     		ldrb	r3, [r7, #15]	@ zero_extendqisi2
 229 0054 013B     		subs	r3, r3, #1
 230 0056 FB73     		strb	r3, [r7, #15]
 231              	.L8:
 184:Generated_Source\PSoC5/cyfitter_cfg.c **** 		{
 232              		.loc 1 184 0
 233 0058 FB7B     		ldrb	r3, [r7, #15]	@ zero_extendqisi2
 234 005a 002B     		cmp	r3, #0
 235 005c E7D1     		bne	.L9
 236              	.LBE2:
 179:Generated_Source\PSoC5/cyfitter_cfg.c **** 	{
 237              		.loc 1 179 0 discriminator 2
 238 005e 7B69     		ldr	r3, [r7, #20]
 239 0060 0133     		adds	r3, r3, #1
 240 0062 7B61     		str	r3, [r7, #20]
 241              	.L7:
 179:Generated_Source\PSoC5/cyfitter_cfg.c **** 	{
 242              		.loc 1 179 0 is_stmt 0 discriminator 1
 243 0064 7B69     		ldr	r3, [r7, #20]
 244 0066 192B     		cmp	r3, #25
 245 0068 D4D9     		bls	.L10
 189:Generated_Source\PSoC5/cyfitter_cfg.c **** 		}
 190:Generated_Source\PSoC5/cyfitter_cfg.c **** 	}
 191:Generated_Source\PSoC5/cyfitter_cfg.c **** }
 246              		.loc 1 191 0 is_stmt 1
 247 006a 00BF     		nop
 248 006c 1C37     		adds	r7, r7, #28
 249              		.cfi_def_cfa_offset 4
 250 006e BD46     		mov	sp, r7
 251              		.cfi_def_cfa_register 13
 252              		@ sp needed
 253 0070 80BC     		pop	{r7}
 254              		.cfi_restore 7
 255              		.cfi_def_cfa_offset 0
 256 0072 7047     		bx	lr
 257              		.cfi_endproc
 258              	.LFE4:
 259              		.size	cfg_write_bytes32, .-cfg_write_bytes32
 260              		.section	.text.ClockSetup,"ax",%progbits
 261              		.align	2
 262              		.thumb
ARM GAS  C:\Users\JAKOVB~2\AppData\Local\Temp\ccztSlne.s 			page 9


 263              		.thumb_func
 264              		.type	ClockSetup, %function
 265              	ClockSetup:
 266              	.LFB5:
 192:Generated_Source\PSoC5/cyfitter_cfg.c **** 
 193:Generated_Source\PSoC5/cyfitter_cfg.c **** /*******************************************************************************
 194:Generated_Source\PSoC5/cyfitter_cfg.c **** * Function Name: ClockSetup
 195:Generated_Source\PSoC5/cyfitter_cfg.c **** ********************************************************************************
 196:Generated_Source\PSoC5/cyfitter_cfg.c **** *
 197:Generated_Source\PSoC5/cyfitter_cfg.c **** * Summary:
 198:Generated_Source\PSoC5/cyfitter_cfg.c **** *  Performs the initialization of all of the clocks in the device based on the
 199:Generated_Source\PSoC5/cyfitter_cfg.c **** *  settings in the Clock tab of the DWR.  This includes enabling the requested
 200:Generated_Source\PSoC5/cyfitter_cfg.c **** *  clocks and setting the necessary dividers to produce the desired frequency. 
 201:Generated_Source\PSoC5/cyfitter_cfg.c **** *
 202:Generated_Source\PSoC5/cyfitter_cfg.c **** * Parameters:
 203:Generated_Source\PSoC5/cyfitter_cfg.c **** *  void
 204:Generated_Source\PSoC5/cyfitter_cfg.c **** *
 205:Generated_Source\PSoC5/cyfitter_cfg.c **** * Return:
 206:Generated_Source\PSoC5/cyfitter_cfg.c **** *  void
 207:Generated_Source\PSoC5/cyfitter_cfg.c **** *
 208:Generated_Source\PSoC5/cyfitter_cfg.c **** *******************************************************************************/
 209:Generated_Source\PSoC5/cyfitter_cfg.c **** static void ClockSetup(void);
 210:Generated_Source\PSoC5/cyfitter_cfg.c **** static void ClockSetup(void)
 211:Generated_Source\PSoC5/cyfitter_cfg.c **** {
 267              		.loc 1 211 0
 268              		.cfi_startproc
 269              		@ args = 0, pretend = 0, frame = 8
 270              		@ frame_needed = 1, uses_anonymous_args = 0
 271 0000 80B5     		push	{r7, lr}
 272              		.cfi_def_cfa_offset 8
 273              		.cfi_offset 7, -8
 274              		.cfi_offset 14, -4
 275 0002 82B0     		sub	sp, sp, #8
 276              		.cfi_def_cfa_offset 16
 277 0004 00AF     		add	r7, sp, #0
 278              		.cfi_def_cfa_register 7
 212:Generated_Source\PSoC5/cyfitter_cfg.c **** 	uint32 timeout;
 213:Generated_Source\PSoC5/cyfitter_cfg.c **** 	uint8 pllLock;
 214:Generated_Source\PSoC5/cyfitter_cfg.c **** 
 215:Generated_Source\PSoC5/cyfitter_cfg.c **** 
 216:Generated_Source\PSoC5/cyfitter_cfg.c **** 	/* Configure Digital Clocks based on settings from Clock DWR */
 217:Generated_Source\PSoC5/cyfitter_cfg.c **** 	CY_SET_XTND_REG16((void CYFAR *)(CYREG_CLKDIST_DCFG0_CFG0), 0x0000u);
 279              		.loc 1 217 0
 280 0006 334B     		ldr	r3, .L16
 281 0008 0022     		movs	r2, #0
 282 000a 1A80     		strh	r2, [r3]	@ movhi
 218:Generated_Source\PSoC5/cyfitter_cfg.c **** 	CY_SET_XTND_REG8((void CYFAR *)(CYREG_CLKDIST_DCFG0_CFG0 + 0x2u), 0x58u);
 283              		.loc 1 218 0
 284 000c 324B     		ldr	r3, .L16+4
 285 000e 5822     		movs	r2, #88
 286 0010 1A70     		strb	r2, [r3]
 219:Generated_Source\PSoC5/cyfitter_cfg.c **** 	CY_SET_XTND_REG16((void CYFAR *)(CYREG_CLKDIST_DCFG1_CFG0), 0x000Bu);
 287              		.loc 1 219 0
 288 0012 324B     		ldr	r3, .L16+8
 289 0014 0B22     		movs	r2, #11
 290 0016 1A80     		strh	r2, [r3]	@ movhi
 220:Generated_Source\PSoC5/cyfitter_cfg.c **** 	CY_SET_XTND_REG8((void CYFAR *)(CYREG_CLKDIST_DCFG1_CFG0 + 0x2u), 0x18u);
ARM GAS  C:\Users\JAKOVB~2\AppData\Local\Temp\ccztSlne.s 			page 10


 291              		.loc 1 220 0
 292 0018 314B     		ldr	r3, .L16+12
 293 001a 1822     		movs	r2, #24
 294 001c 1A70     		strb	r2, [r3]
 221:Generated_Source\PSoC5/cyfitter_cfg.c **** 
 222:Generated_Source\PSoC5/cyfitter_cfg.c **** 	/* Configure ILO based on settings from Clock DWR */
 223:Generated_Source\PSoC5/cyfitter_cfg.c **** 	CY_SET_XTND_REG8((void CYFAR *)(CYREG_SLOWCLK_ILO_CR0), 0x06u);
 295              		.loc 1 223 0
 296 001e 314B     		ldr	r3, .L16+16
 297 0020 0622     		movs	r2, #6
 298 0022 1A70     		strb	r2, [r3]
 224:Generated_Source\PSoC5/cyfitter_cfg.c **** 
 225:Generated_Source\PSoC5/cyfitter_cfg.c **** 	/* Configure IMO based on settings from Clock DWR */
 226:Generated_Source\PSoC5/cyfitter_cfg.c **** 	CY_SET_XTND_REG8((void CYFAR *)(CYREG_FASTCLK_IMO_CR), 0x52u);
 299              		.loc 1 226 0
 300 0024 304B     		ldr	r3, .L16+20
 301 0026 5222     		movs	r2, #82
 302 0028 1A70     		strb	r2, [r3]
 227:Generated_Source\PSoC5/cyfitter_cfg.c **** 	CY_SET_XTND_REG8((void CYFAR *)(CYREG_IMO_TR1), (CY_GET_XTND_REG8((void CYFAR *)CYREG_FLSHID_CUST_
 303              		.loc 1 227 0
 304 002a 304B     		ldr	r3, .L16+24
 305 002c 304A     		ldr	r2, .L16+28
 306 002e 1278     		ldrb	r2, [r2]
 307 0030 D2B2     		uxtb	r2, r2
 308 0032 1A70     		strb	r2, [r3]
 228:Generated_Source\PSoC5/cyfitter_cfg.c **** 
 229:Generated_Source\PSoC5/cyfitter_cfg.c **** 	/* Configure PLL based on settings from Clock DWR */
 230:Generated_Source\PSoC5/cyfitter_cfg.c **** 	CY_SET_XTND_REG16((void CYFAR *)(CYREG_FASTCLK_PLL_P), 0x0708u);
 309              		.loc 1 230 0
 310 0034 2F4B     		ldr	r3, .L16+32
 311 0036 4FF4E162 		mov	r2, #1800
 312 003a 1A80     		strh	r2, [r3]	@ movhi
 231:Generated_Source\PSoC5/cyfitter_cfg.c **** 	CY_SET_XTND_REG16((void CYFAR *)(CYREG_FASTCLK_PLL_CFG0), 0x1251u);
 313              		.loc 1 231 0
 314 003c 2E4B     		ldr	r3, .L16+36
 315 003e 41F25122 		movw	r2, #4689
 316 0042 1A80     		strh	r2, [r3]	@ movhi
 232:Generated_Source\PSoC5/cyfitter_cfg.c **** 	/* Wait up to 250us for the PLL to lock */
 233:Generated_Source\PSoC5/cyfitter_cfg.c **** 	pllLock = 0u;
 317              		.loc 1 233 0
 318 0044 0023     		movs	r3, #0
 319 0046 FB70     		strb	r3, [r7, #3]
 234:Generated_Source\PSoC5/cyfitter_cfg.c **** 	for (timeout = 250u / 10u; (timeout > 0u) && (pllLock != 0x03u); timeout--)
 320              		.loc 1 234 0
 321 0048 1923     		movs	r3, #25
 322 004a 7B60     		str	r3, [r7, #4]
 323 004c 14E0     		b	.L12
 324              	.L14:
 235:Generated_Source\PSoC5/cyfitter_cfg.c **** 	{ 
 236:Generated_Source\PSoC5/cyfitter_cfg.c **** 		pllLock = 0x03u & ((uint8)((uint8)pllLock << 1) | ((CY_GET_XTND_REG8((void CYFAR *)CYREG_FASTCLK_
 325              		.loc 1 236 0 discriminator 4
 326 004e FB78     		ldrb	r3, [r7, #3]
 327 0050 5B00     		lsls	r3, r3, #1
 328 0052 DAB2     		uxtb	r2, r3
 329 0054 294B     		ldr	r3, .L16+40
 330 0056 1B78     		ldrb	r3, [r3]
 331 0058 DBB2     		uxtb	r3, r3
ARM GAS  C:\Users\JAKOVB~2\AppData\Local\Temp\ccztSlne.s 			page 11


 332 005a 03F00103 		and	r3, r3, #1
 333 005e DBB2     		uxtb	r3, r3
 334 0060 1343     		orrs	r3, r3, r2
 335 0062 DBB2     		uxtb	r3, r3
 336 0064 03F00303 		and	r3, r3, #3
 337 0068 FB70     		strb	r3, [r7, #3]
 237:Generated_Source\PSoC5/cyfitter_cfg.c **** 		CyDelayCycles(10u * 48u); /* Delay 10us based on 48MHz clock */
 338              		.loc 1 237 0 discriminator 4
 339 006a 4FF4F070 		mov	r0, #480
 340 006e FFF7FEFF 		bl	CyDelayCycles
 234:Generated_Source\PSoC5/cyfitter_cfg.c **** 	for (timeout = 250u / 10u; (timeout > 0u) && (pllLock != 0x03u); timeout--)
 341              		.loc 1 234 0 discriminator 4
 342 0072 7B68     		ldr	r3, [r7, #4]
 343 0074 013B     		subs	r3, r3, #1
 344 0076 7B60     		str	r3, [r7, #4]
 345              	.L12:
 234:Generated_Source\PSoC5/cyfitter_cfg.c **** 	for (timeout = 250u / 10u; (timeout > 0u) && (pllLock != 0x03u); timeout--)
 346              		.loc 1 234 0 is_stmt 0 discriminator 1
 347 0078 7B68     		ldr	r3, [r7, #4]
 348 007a 002B     		cmp	r3, #0
 349 007c 02D0     		beq	.L13
 234:Generated_Source\PSoC5/cyfitter_cfg.c **** 	for (timeout = 250u / 10u; (timeout > 0u) && (pllLock != 0x03u); timeout--)
 350              		.loc 1 234 0 discriminator 3
 351 007e FB78     		ldrb	r3, [r7, #3]	@ zero_extendqisi2
 352 0080 032B     		cmp	r3, #3
 353 0082 E4D1     		bne	.L14
 354              	.L13:
 238:Generated_Source\PSoC5/cyfitter_cfg.c **** 	}
 239:Generated_Source\PSoC5/cyfitter_cfg.c **** 	/* If we ran out of time the PLL didn't lock so go to the error function */
 240:Generated_Source\PSoC5/cyfitter_cfg.c **** 	if (timeout == 0u)
 355              		.loc 1 240 0 is_stmt 1
 356 0084 7B68     		ldr	r3, [r7, #4]
 357 0086 002B     		cmp	r3, #0
 358 0088 02D1     		bne	.L15
 241:Generated_Source\PSoC5/cyfitter_cfg.c **** 	{
 242:Generated_Source\PSoC5/cyfitter_cfg.c **** 		CyClockStartupError(CYCLOCKSTART_PLL_ERROR);
 359              		.loc 1 242 0
 360 008a 0320     		movs	r0, #3
 361 008c FFF7FEFF 		bl	CyClockStartupError
 362              	.L15:
 243:Generated_Source\PSoC5/cyfitter_cfg.c **** 	}
 244:Generated_Source\PSoC5/cyfitter_cfg.c **** 
 245:Generated_Source\PSoC5/cyfitter_cfg.c **** 	/* Configure Bus/Master Clock based on settings from Clock DWR */
 246:Generated_Source\PSoC5/cyfitter_cfg.c **** 	CY_SET_XTND_REG16((void CYFAR *)(CYREG_CLKDIST_MSTR0), 0x0100u);
 363              		.loc 1 246 0
 364 0090 1B4B     		ldr	r3, .L16+44
 365 0092 4FF48072 		mov	r2, #256
 366 0096 1A80     		strh	r2, [r3]	@ movhi
 247:Generated_Source\PSoC5/cyfitter_cfg.c **** 	CY_SET_XTND_REG8((void CYFAR *)(CYREG_CLKDIST_MSTR0), 0x07u);
 367              		.loc 1 247 0
 368 0098 194B     		ldr	r3, .L16+44
 369 009a 0722     		movs	r2, #7
 370 009c 1A70     		strb	r2, [r3]
 248:Generated_Source\PSoC5/cyfitter_cfg.c **** 	CY_SET_XTND_REG8((void CYFAR *)(CYREG_CLKDIST_BCFG0), 0x00u);
 371              		.loc 1 248 0
 372 009e 194B     		ldr	r3, .L16+48
 373 00a0 0022     		movs	r2, #0
ARM GAS  C:\Users\JAKOVB~2\AppData\Local\Temp\ccztSlne.s 			page 12


 374 00a2 1A70     		strb	r2, [r3]
 249:Generated_Source\PSoC5/cyfitter_cfg.c **** 	CY_SET_XTND_REG8((void CYFAR *)(CYREG_CLKDIST_BCFG2), 0x48u);
 375              		.loc 1 249 0
 376 00a4 184B     		ldr	r3, .L16+52
 377 00a6 4822     		movs	r2, #72
 378 00a8 1A70     		strb	r2, [r3]
 250:Generated_Source\PSoC5/cyfitter_cfg.c **** 	CY_SET_XTND_REG8((void CYFAR *)(CYREG_CLKDIST_MSTR0), 0x00u);
 379              		.loc 1 250 0
 380 00aa 154B     		ldr	r3, .L16+44
 381 00ac 0022     		movs	r2, #0
 382 00ae 1A70     		strb	r2, [r3]
 251:Generated_Source\PSoC5/cyfitter_cfg.c **** 
 252:Generated_Source\PSoC5/cyfitter_cfg.c **** 	/* Configure USB Clock based on settings from Clock DWR */
 253:Generated_Source\PSoC5/cyfitter_cfg.c **** 	CY_SET_XTND_REG8((void CYFAR *)(CYREG_CLKDIST_UCFG), 0x00u);
 383              		.loc 1 253 0
 384 00b0 164B     		ldr	r3, .L16+56
 385 00b2 0022     		movs	r2, #0
 386 00b4 1A70     		strb	r2, [r3]
 254:Generated_Source\PSoC5/cyfitter_cfg.c **** 	CY_SET_XTND_REG8((void CYFAR *)(CYREG_CLKDIST_LD), 0x02u);
 387              		.loc 1 254 0
 388 00b6 164B     		ldr	r3, .L16+60
 389 00b8 0222     		movs	r2, #2
 390 00ba 1A70     		strb	r2, [r3]
 255:Generated_Source\PSoC5/cyfitter_cfg.c **** 
 256:Generated_Source\PSoC5/cyfitter_cfg.c **** 	CY_SET_XTND_REG8((void CYFAR *)(CYREG_PM_ACT_CFG2), ((CY_GET_XTND_REG8((void CYFAR *)CYREG_PM_ACT_
 391              		.loc 1 256 0
 392 00bc 154A     		ldr	r2, .L16+64
 393 00be 154B     		ldr	r3, .L16+64
 394 00c0 1B78     		ldrb	r3, [r3]
 395 00c2 DBB2     		uxtb	r3, r3
 396 00c4 43F00303 		orr	r3, r3, #3
 397 00c8 DBB2     		uxtb	r3, r3
 398 00ca 1370     		strb	r3, [r2]
 257:Generated_Source\PSoC5/cyfitter_cfg.c **** }
 399              		.loc 1 257 0
 400 00cc 00BF     		nop
 401 00ce 0837     		adds	r7, r7, #8
 402              		.cfi_def_cfa_offset 8
 403 00d0 BD46     		mov	sp, r7
 404              		.cfi_def_cfa_register 13
 405              		@ sp needed
 406 00d2 80BD     		pop	{r7, pc}
 407              	.L17:
 408              		.align	2
 409              	.L16:
 410 00d4 80400040 		.word	1073758336
 411 00d8 82400040 		.word	1073758338
 412 00dc 84400040 		.word	1073758340
 413 00e0 86400040 		.word	1073758342
 414 00e4 00430040 		.word	1073758976
 415 00e8 00420040 		.word	1073758720
 416 00ec A1460040 		.word	1073759905
 417 00f0 0F010049 		.word	1224737039
 418 00f4 22420040 		.word	1073758754
 419 00f8 20420040 		.word	1073758752
 420 00fc 25420040 		.word	1073758757
 421 0100 04400040 		.word	1073758212
ARM GAS  C:\Users\JAKOVB~2\AppData\Local\Temp\ccztSlne.s 			page 13


 422 0104 06400040 		.word	1073758214
 423 0108 08400040 		.word	1073758216
 424 010c 09400040 		.word	1073758217
 425 0110 01400040 		.word	1073758209
 426 0114 A2430040 		.word	1073759138
 427              		.cfi_endproc
 428              	.LFE5:
 429              		.size	ClockSetup, .-ClockSetup
 430              		.section	.text.AnalogSetDefault,"ax",%progbits
 431              		.align	2
 432              		.thumb
 433              		.thumb_func
 434              		.type	AnalogSetDefault, %function
 435              	AnalogSetDefault:
 436              	.LFB6:
 258:Generated_Source\PSoC5/cyfitter_cfg.c **** 
 259:Generated_Source\PSoC5/cyfitter_cfg.c **** 
 260:Generated_Source\PSoC5/cyfitter_cfg.c **** /* Analog API Functions */
 261:Generated_Source\PSoC5/cyfitter_cfg.c **** 
 262:Generated_Source\PSoC5/cyfitter_cfg.c **** 
 263:Generated_Source\PSoC5/cyfitter_cfg.c **** /*******************************************************************************
 264:Generated_Source\PSoC5/cyfitter_cfg.c **** * Function Name: AnalogSetDefault
 265:Generated_Source\PSoC5/cyfitter_cfg.c **** ********************************************************************************
 266:Generated_Source\PSoC5/cyfitter_cfg.c **** *
 267:Generated_Source\PSoC5/cyfitter_cfg.c **** * Summary:
 268:Generated_Source\PSoC5/cyfitter_cfg.c **** *  Sets up the analog portions of the chip to default values based on chip
 269:Generated_Source\PSoC5/cyfitter_cfg.c **** *  configuration options from the project.
 270:Generated_Source\PSoC5/cyfitter_cfg.c **** *
 271:Generated_Source\PSoC5/cyfitter_cfg.c **** * Parameters:
 272:Generated_Source\PSoC5/cyfitter_cfg.c **** *  void
 273:Generated_Source\PSoC5/cyfitter_cfg.c **** *
 274:Generated_Source\PSoC5/cyfitter_cfg.c **** * Return:
 275:Generated_Source\PSoC5/cyfitter_cfg.c **** *  void
 276:Generated_Source\PSoC5/cyfitter_cfg.c **** *
 277:Generated_Source\PSoC5/cyfitter_cfg.c **** *******************************************************************************/
 278:Generated_Source\PSoC5/cyfitter_cfg.c **** static void AnalogSetDefault(void);
 279:Generated_Source\PSoC5/cyfitter_cfg.c **** static void AnalogSetDefault(void)
 280:Generated_Source\PSoC5/cyfitter_cfg.c **** {
 437              		.loc 1 280 0
 438              		.cfi_startproc
 439              		@ args = 0, pretend = 0, frame = 8
 440              		@ frame_needed = 1, uses_anonymous_args = 0
 441              		@ link register save eliminated.
 442 0000 80B4     		push	{r7}
 443              		.cfi_def_cfa_offset 4
 444              		.cfi_offset 7, -4
 445 0002 83B0     		sub	sp, sp, #12
 446              		.cfi_def_cfa_offset 16
 447 0004 00AF     		add	r7, sp, #0
 448              		.cfi_def_cfa_register 7
 281:Generated_Source\PSoC5/cyfitter_cfg.c **** 	uint8 bg_xover_inl_trim = CY_GET_XTND_REG8((void CYFAR *)(CYREG_FLSHID_MFG_CFG_BG_XOVER_INL_TRIM +
 449              		.loc 1 281 0
 450 0006 0B4B     		ldr	r3, .L19
 451 0008 1B78     		ldrb	r3, [r3]
 452 000a FB71     		strb	r3, [r7, #7]
 282:Generated_Source\PSoC5/cyfitter_cfg.c **** 	CY_SET_XTND_REG8((void CYFAR *)(CYREG_BG_DFT0), (bg_xover_inl_trim & 0x07u));
 453              		.loc 1 282 0
ARM GAS  C:\Users\JAKOVB~2\AppData\Local\Temp\ccztSlne.s 			page 14


 454 000c 0A4A     		ldr	r2, .L19+4
 455 000e FB79     		ldrb	r3, [r7, #7]
 456 0010 03F00703 		and	r3, r3, #7
 457 0014 DBB2     		uxtb	r3, r3
 458 0016 1370     		strb	r3, [r2]
 283:Generated_Source\PSoC5/cyfitter_cfg.c **** 	CY_SET_XTND_REG8((void CYFAR *)(CYREG_BG_DFT1), ((bg_xover_inl_trim >> 4) & 0x0Fu));
 459              		.loc 1 283 0
 460 0018 084A     		ldr	r2, .L19+8
 461 001a FB79     		ldrb	r3, [r7, #7]	@ zero_extendqisi2
 462 001c 1B09     		lsrs	r3, r3, #4
 463 001e DBB2     		uxtb	r3, r3
 464 0020 1370     		strb	r3, [r2]
 284:Generated_Source\PSoC5/cyfitter_cfg.c **** 	CY_SET_XTND_REG8((void CYFAR *)CYREG_PUMP_CR0, 0x44u);
 465              		.loc 1 284 0
 466 0022 074B     		ldr	r3, .L19+12
 467 0024 4422     		movs	r2, #68
 468 0026 1A70     		strb	r2, [r3]
 285:Generated_Source\PSoC5/cyfitter_cfg.c **** }
 469              		.loc 1 285 0
 470 0028 00BF     		nop
 471 002a 0C37     		adds	r7, r7, #12
 472              		.cfi_def_cfa_offset 4
 473 002c BD46     		mov	sp, r7
 474              		.cfi_def_cfa_register 13
 475              		@ sp needed
 476 002e 80BC     		pop	{r7}
 477              		.cfi_restore 7
 478              		.cfi_def_cfa_offset 0
 479 0030 7047     		bx	lr
 480              	.L20:
 481 0032 00BF     		.align	2
 482              	.L19:
 483 0034 CF010049 		.word	1224737231
 484 0038 6E580040 		.word	1073764462
 485 003c 6F580040 		.word	1073764463
 486 0040 76580040 		.word	1073764470
 487              		.cfi_endproc
 488              	.LFE6:
 489              		.size	AnalogSetDefault, .-AnalogSetDefault
 490              		.section	.text.SetAnalogRoutingPumps,"ax",%progbits
 491              		.align	2
 492              		.global	SetAnalogRoutingPumps
 493              		.thumb
 494              		.thumb_func
 495              		.type	SetAnalogRoutingPumps, %function
 496              	SetAnalogRoutingPumps:
 497              	.LFB7:
 286:Generated_Source\PSoC5/cyfitter_cfg.c **** 
 287:Generated_Source\PSoC5/cyfitter_cfg.c **** 
 288:Generated_Source\PSoC5/cyfitter_cfg.c **** /*******************************************************************************
 289:Generated_Source\PSoC5/cyfitter_cfg.c **** * Function Name: SetAnalogRoutingPumps
 290:Generated_Source\PSoC5/cyfitter_cfg.c **** ********************************************************************************
 291:Generated_Source\PSoC5/cyfitter_cfg.c **** *
 292:Generated_Source\PSoC5/cyfitter_cfg.c **** * Summary:
 293:Generated_Source\PSoC5/cyfitter_cfg.c **** * Enables or disables the analog pumps feeding analog routing switches.
 294:Generated_Source\PSoC5/cyfitter_cfg.c **** * Intended to be called at startup, based on the Vdda system configuration;
 295:Generated_Source\PSoC5/cyfitter_cfg.c **** * may be called during operation when the user informs us that the Vdda voltage
ARM GAS  C:\Users\JAKOVB~2\AppData\Local\Temp\ccztSlne.s 			page 15


 296:Generated_Source\PSoC5/cyfitter_cfg.c **** * crossed the pump threshold.
 297:Generated_Source\PSoC5/cyfitter_cfg.c **** *
 298:Generated_Source\PSoC5/cyfitter_cfg.c **** * Parameters:
 299:Generated_Source\PSoC5/cyfitter_cfg.c **** *  enabled - 1 to enable the pumps, 0 to disable the pumps
 300:Generated_Source\PSoC5/cyfitter_cfg.c **** *
 301:Generated_Source\PSoC5/cyfitter_cfg.c **** * Return:
 302:Generated_Source\PSoC5/cyfitter_cfg.c **** *  void
 303:Generated_Source\PSoC5/cyfitter_cfg.c **** *
 304:Generated_Source\PSoC5/cyfitter_cfg.c **** *******************************************************************************/
 305:Generated_Source\PSoC5/cyfitter_cfg.c **** void SetAnalogRoutingPumps(uint8 enabled)
 306:Generated_Source\PSoC5/cyfitter_cfg.c **** {
 498              		.loc 1 306 0
 499              		.cfi_startproc
 500              		@ args = 0, pretend = 0, frame = 16
 501              		@ frame_needed = 1, uses_anonymous_args = 0
 502              		@ link register save eliminated.
 503 0000 80B4     		push	{r7}
 504              		.cfi_def_cfa_offset 4
 505              		.cfi_offset 7, -4
 506 0002 85B0     		sub	sp, sp, #20
 507              		.cfi_def_cfa_offset 24
 508 0004 00AF     		add	r7, sp, #0
 509              		.cfi_def_cfa_register 7
 510 0006 0346     		mov	r3, r0
 511 0008 FB71     		strb	r3, [r7, #7]
 307:Generated_Source\PSoC5/cyfitter_cfg.c **** 	uint8 regValue = CY_GET_XTND_REG8((void CYFAR *)CYREG_PUMP_CR0);
 512              		.loc 1 307 0
 513 000a 064B     		ldr	r3, .L24
 514 000c 1B78     		ldrb	r3, [r3]
 515 000e FB73     		strb	r3, [r7, #15]
 308:Generated_Source\PSoC5/cyfitter_cfg.c **** 	if (enabled != 0u)
 516              		.loc 1 308 0
 517 0010 FB79     		ldrb	r3, [r7, #7]	@ zero_extendqisi2
 518 0012 002B     		cmp	r3, #0
 309:Generated_Source\PSoC5/cyfitter_cfg.c **** 	{
 310:Generated_Source\PSoC5/cyfitter_cfg.c **** 		regValue |= 0x00u;
 311:Generated_Source\PSoC5/cyfitter_cfg.c **** 	}
 312:Generated_Source\PSoC5/cyfitter_cfg.c **** 	else
 313:Generated_Source\PSoC5/cyfitter_cfg.c **** 	{
 314:Generated_Source\PSoC5/cyfitter_cfg.c **** 		regValue &= (uint8)~0x00u;
 315:Generated_Source\PSoC5/cyfitter_cfg.c **** 	}
 316:Generated_Source\PSoC5/cyfitter_cfg.c **** 	CY_SET_XTND_REG8((void CYFAR *)CYREG_PUMP_CR0, regValue);
 519              		.loc 1 316 0
 520 0014 034A     		ldr	r2, .L24
 521 0016 FB7B     		ldrb	r3, [r7, #15]
 522 0018 1370     		strb	r3, [r2]
 317:Generated_Source\PSoC5/cyfitter_cfg.c **** }
 523              		.loc 1 317 0
 524 001a 00BF     		nop
 525 001c 1437     		adds	r7, r7, #20
 526              		.cfi_def_cfa_offset 4
 527 001e BD46     		mov	sp, r7
 528              		.cfi_def_cfa_register 13
 529              		@ sp needed
 530 0020 80BC     		pop	{r7}
 531              		.cfi_restore 7
 532              		.cfi_def_cfa_offset 0
ARM GAS  C:\Users\JAKOVB~2\AppData\Local\Temp\ccztSlne.s 			page 16


 533 0022 7047     		bx	lr
 534              	.L25:
 535              		.align	2
 536              	.L24:
 537 0024 76580040 		.word	1073764470
 538              		.cfi_endproc
 539              	.LFE7:
 540              		.size	SetAnalogRoutingPumps, .-SetAnalogRoutingPumps
 541              		.section	.text.cyfitter_cfg,"ax",%progbits
 542              		.align	2
 543              		.global	cyfitter_cfg
 544              		.thumb
 545              		.thumb_func
 546              		.type	cyfitter_cfg, %function
 547              	cyfitter_cfg:
 548              	.LFB8:
 318:Generated_Source\PSoC5/cyfitter_cfg.c **** 
 319:Generated_Source\PSoC5/cyfitter_cfg.c **** 
 320:Generated_Source\PSoC5/cyfitter_cfg.c **** 
 321:Generated_Source\PSoC5/cyfitter_cfg.c **** 
 322:Generated_Source\PSoC5/cyfitter_cfg.c **** /*******************************************************************************
 323:Generated_Source\PSoC5/cyfitter_cfg.c **** * Function Name: cyfitter_cfg
 324:Generated_Source\PSoC5/cyfitter_cfg.c **** ********************************************************************************
 325:Generated_Source\PSoC5/cyfitter_cfg.c **** * Summary:
 326:Generated_Source\PSoC5/cyfitter_cfg.c **** *  This function is called by the start-up code for the selected device. It
 327:Generated_Source\PSoC5/cyfitter_cfg.c **** *  performs all of the necessary device configuration based on the design
 328:Generated_Source\PSoC5/cyfitter_cfg.c **** *  settings.  This includes settings from the Design Wide Resources (DWR) such
 329:Generated_Source\PSoC5/cyfitter_cfg.c **** *  as Clocks and Pins as well as any component configuration that is necessary.
 330:Generated_Source\PSoC5/cyfitter_cfg.c **** *
 331:Generated_Source\PSoC5/cyfitter_cfg.c **** * Parameters:
 332:Generated_Source\PSoC5/cyfitter_cfg.c **** *   void
 333:Generated_Source\PSoC5/cyfitter_cfg.c **** *
 334:Generated_Source\PSoC5/cyfitter_cfg.c **** * Return:
 335:Generated_Source\PSoC5/cyfitter_cfg.c **** *   void
 336:Generated_Source\PSoC5/cyfitter_cfg.c **** *
 337:Generated_Source\PSoC5/cyfitter_cfg.c **** *******************************************************************************/
 338:Generated_Source\PSoC5/cyfitter_cfg.c **** 
 339:Generated_Source\PSoC5/cyfitter_cfg.c **** void cyfitter_cfg(void)
 340:Generated_Source\PSoC5/cyfitter_cfg.c **** {
 549              		.loc 1 340 0
 550              		.cfi_startproc
 551              		@ args = 0, pretend = 0, frame = 8
 552              		@ frame_needed = 1, uses_anonymous_args = 0
 553 0000 80B5     		push	{r7, lr}
 554              		.cfi_def_cfa_offset 8
 555              		.cfi_offset 7, -8
 556              		.cfi_offset 14, -4
 557 0002 82B0     		sub	sp, sp, #8
 558              		.cfi_def_cfa_offset 16
 559 0004 00AF     		add	r7, sp, #0
 560              		.cfi_def_cfa_register 7
 341:Generated_Source\PSoC5/cyfitter_cfg.c **** 	/* IOPINS0_0 Address: CYREG_PRT0_DM0 Size (bytes): 8 */
 342:Generated_Source\PSoC5/cyfitter_cfg.c **** 	static const uint8 CYCODE BS_IOPINS0_0_VAL[] = {
 343:Generated_Source\PSoC5/cyfitter_cfg.c **** 		0x20u, 0x23u, 0x03u, 0x00u, 0x03u, 0x00u, 0x00u, 0x00u};
 344:Generated_Source\PSoC5/cyfitter_cfg.c **** 
 345:Generated_Source\PSoC5/cyfitter_cfg.c **** 	/* IOPINS0_8 Address: CYREG_PRT15_DR Size (bytes): 10 */
 346:Generated_Source\PSoC5/cyfitter_cfg.c **** 	static const uint8 CYCODE BS_IOPINS0_8_VAL[] = {
ARM GAS  C:\Users\JAKOVB~2\AppData\Local\Temp\ccztSlne.s 			page 17


 347:Generated_Source\PSoC5/cyfitter_cfg.c **** 		0x40u, 0x00u, 0x00u, 0x00u, 0x00u, 0x00u, 0x00u, 0x00u, 0xC0u, 0x00u};
 348:Generated_Source\PSoC5/cyfitter_cfg.c **** 
 349:Generated_Source\PSoC5/cyfitter_cfg.c **** 	/* IOPINS0_1 Address: CYREG_PRT1_DM0 Size (bytes): 8 */
 350:Generated_Source\PSoC5/cyfitter_cfg.c **** 	static const uint8 CYCODE BS_IOPINS0_1_VAL[] = {
 351:Generated_Source\PSoC5/cyfitter_cfg.c **** 		0x00u, 0x0Bu, 0x0Bu, 0x00u, 0x00u, 0x00u, 0x00u, 0x00u};
 352:Generated_Source\PSoC5/cyfitter_cfg.c **** 
 353:Generated_Source\PSoC5/cyfitter_cfg.c **** #ifdef CYGlobalIntDisable
 354:Generated_Source\PSoC5/cyfitter_cfg.c **** 	/* Disable interrupts by default. Let user enable if/when they want. */
 355:Generated_Source\PSoC5/cyfitter_cfg.c **** 	CYGlobalIntDisable
 561              		.loc 1 355 0
 562              		.syntax unified
 563              	@ 355 "Generated_Source\PSoC5\cyfitter_cfg.c" 1
 564 0006 72B6     		CPSID   i
 565              	@ 0 "" 2
 356:Generated_Source\PSoC5/cyfitter_cfg.c **** #endif
 357:Generated_Source\PSoC5/cyfitter_cfg.c **** 
 358:Generated_Source\PSoC5/cyfitter_cfg.c **** 	/* Enable/Disable Debug functionality based on settings from System DWR */
 359:Generated_Source\PSoC5/cyfitter_cfg.c **** 	CY_SET_XTND_REG8((void CYFAR *)CYREG_MLOGIC_DEBUG, (CY_GET_XTND_REG8((void CYFAR *)CYREG_MLOGIC_DE
 566              		.loc 1 359 0
 567              		.thumb
 568              		.syntax unified
 569 0008 394A     		ldr	r2, .L29
 570 000a 394B     		ldr	r3, .L29
 571 000c 1B78     		ldrb	r3, [r3]
 572 000e DBB2     		uxtb	r3, r3
 573 0010 43F00403 		orr	r3, r3, #4
 574 0014 DBB2     		uxtb	r3, r3
 575 0016 1370     		strb	r3, [r2]
 576              	.LBB3:
 360:Generated_Source\PSoC5/cyfitter_cfg.c **** 
 361:Generated_Source\PSoC5/cyfitter_cfg.c **** 	{
 362:Generated_Source\PSoC5/cyfitter_cfg.c **** 		static const uint32 CYCODE cy_cfg_addr_table[] = {
 363:Generated_Source\PSoC5/cyfitter_cfg.c **** 			0x40004501u, /* Base address: 0x40004500 Count: 1 */
 364:Generated_Source\PSoC5/cyfitter_cfg.c **** 			0x40005202u, /* Base address: 0x40005200 Count: 2 */
 365:Generated_Source\PSoC5/cyfitter_cfg.c **** 			0x40006402u, /* Base address: 0x40006400 Count: 2 */
 366:Generated_Source\PSoC5/cyfitter_cfg.c **** 			0x40010046u, /* Base address: 0x40010000 Count: 70 */
 367:Generated_Source\PSoC5/cyfitter_cfg.c **** 			0x40010127u, /* Base address: 0x40010100 Count: 39 */
 368:Generated_Source\PSoC5/cyfitter_cfg.c **** 			0x40010236u, /* Base address: 0x40010200 Count: 54 */
 369:Generated_Source\PSoC5/cyfitter_cfg.c **** 			0x40010328u, /* Base address: 0x40010300 Count: 40 */
 370:Generated_Source\PSoC5/cyfitter_cfg.c **** 			0x40010412u, /* Base address: 0x40010400 Count: 18 */
 371:Generated_Source\PSoC5/cyfitter_cfg.c **** 			0x4001050Du, /* Base address: 0x40010500 Count: 13 */
 372:Generated_Source\PSoC5/cyfitter_cfg.c **** 			0x40010701u, /* Base address: 0x40010700 Count: 1 */
 373:Generated_Source\PSoC5/cyfitter_cfg.c **** 			0x40010D01u, /* Base address: 0x40010D00 Count: 1 */
 374:Generated_Source\PSoC5/cyfitter_cfg.c **** 			0x40010F01u, /* Base address: 0x40010F00 Count: 1 */
 375:Generated_Source\PSoC5/cyfitter_cfg.c **** 			0x40011703u, /* Base address: 0x40011700 Count: 3 */
 376:Generated_Source\PSoC5/cyfitter_cfg.c **** 			0x40011901u, /* Base address: 0x40011900 Count: 1 */
 377:Generated_Source\PSoC5/cyfitter_cfg.c **** 			0x40014006u, /* Base address: 0x40014000 Count: 6 */
 378:Generated_Source\PSoC5/cyfitter_cfg.c **** 			0x4001410Bu, /* Base address: 0x40014100 Count: 11 */
 379:Generated_Source\PSoC5/cyfitter_cfg.c **** 			0x40014207u, /* Base address: 0x40014200 Count: 7 */
 380:Generated_Source\PSoC5/cyfitter_cfg.c **** 			0x40014301u, /* Base address: 0x40014300 Count: 1 */
 381:Generated_Source\PSoC5/cyfitter_cfg.c **** 			0x40014402u, /* Base address: 0x40014400 Count: 2 */
 382:Generated_Source\PSoC5/cyfitter_cfg.c **** 			0x40014502u, /* Base address: 0x40014500 Count: 2 */
 383:Generated_Source\PSoC5/cyfitter_cfg.c **** 			0x40014602u, /* Base address: 0x40014600 Count: 2 */
 384:Generated_Source\PSoC5/cyfitter_cfg.c **** 			0x40014705u, /* Base address: 0x40014700 Count: 5 */
 385:Generated_Source\PSoC5/cyfitter_cfg.c **** 			0x40014806u, /* Base address: 0x40014800 Count: 6 */
 386:Generated_Source\PSoC5/cyfitter_cfg.c **** 			0x40014C01u, /* Base address: 0x40014C00 Count: 1 */
 387:Generated_Source\PSoC5/cyfitter_cfg.c **** 			0x40015003u, /* Base address: 0x40015000 Count: 3 */
ARM GAS  C:\Users\JAKOVB~2\AppData\Local\Temp\ccztSlne.s 			page 18


 388:Generated_Source\PSoC5/cyfitter_cfg.c **** 			0x40015101u, /* Base address: 0x40015100 Count: 1 */
 389:Generated_Source\PSoC5/cyfitter_cfg.c **** 		};
 390:Generated_Source\PSoC5/cyfitter_cfg.c **** 
 391:Generated_Source\PSoC5/cyfitter_cfg.c **** 		static const cy_cfg_addrvalue_t CYCODE cy_cfg_data_table[] = {
 392:Generated_Source\PSoC5/cyfitter_cfg.c **** 			{0x7Eu, 0x02u},
 393:Generated_Source\PSoC5/cyfitter_cfg.c **** 			{0x00u, 0x02u},
 394:Generated_Source\PSoC5/cyfitter_cfg.c **** 			{0x7Cu, 0x40u},
 395:Generated_Source\PSoC5/cyfitter_cfg.c **** 			{0x24u, 0x17u},
 396:Generated_Source\PSoC5/cyfitter_cfg.c **** 			{0x83u, 0x0Fu},
 397:Generated_Source\PSoC5/cyfitter_cfg.c **** 			{0x00u, 0x08u},
 398:Generated_Source\PSoC5/cyfitter_cfg.c **** 			{0x02u, 0x02u},
 399:Generated_Source\PSoC5/cyfitter_cfg.c **** 			{0x03u, 0x08u},
 400:Generated_Source\PSoC5/cyfitter_cfg.c **** 			{0x0Eu, 0x0Du},
 401:Generated_Source\PSoC5/cyfitter_cfg.c **** 			{0x0Fu, 0x0Bu},
 402:Generated_Source\PSoC5/cyfitter_cfg.c **** 			{0x13u, 0x0Bu},
 403:Generated_Source\PSoC5/cyfitter_cfg.c **** 			{0x14u, 0x06u},
 404:Generated_Source\PSoC5/cyfitter_cfg.c **** 			{0x17u, 0x01u},
 405:Generated_Source\PSoC5/cyfitter_cfg.c **** 			{0x1Bu, 0x02u},
 406:Generated_Source\PSoC5/cyfitter_cfg.c **** 			{0x21u, 0x01u},
 407:Generated_Source\PSoC5/cyfitter_cfg.c **** 			{0x22u, 0x0Fu},
 408:Generated_Source\PSoC5/cyfitter_cfg.c **** 			{0x23u, 0x04u},
 409:Generated_Source\PSoC5/cyfitter_cfg.c **** 			{0x25u, 0x03u},
 410:Generated_Source\PSoC5/cyfitter_cfg.c **** 			{0x28u, 0x02u},
 411:Generated_Source\PSoC5/cyfitter_cfg.c **** 			{0x2Au, 0x08u},
 412:Generated_Source\PSoC5/cyfitter_cfg.c **** 			{0x2Eu, 0x0Fu},
 413:Generated_Source\PSoC5/cyfitter_cfg.c **** 			{0x2Fu, 0x08u},
 414:Generated_Source\PSoC5/cyfitter_cfg.c **** 			{0x30u, 0x06u},
 415:Generated_Source\PSoC5/cyfitter_cfg.c **** 			{0x32u, 0x08u},
 416:Generated_Source\PSoC5/cyfitter_cfg.c **** 			{0x33u, 0x04u},
 417:Generated_Source\PSoC5/cyfitter_cfg.c **** 			{0x34u, 0x08u},
 418:Generated_Source\PSoC5/cyfitter_cfg.c **** 			{0x35u, 0x03u},
 419:Generated_Source\PSoC5/cyfitter_cfg.c **** 			{0x36u, 0x01u},
 420:Generated_Source\PSoC5/cyfitter_cfg.c **** 			{0x37u, 0x08u},
 421:Generated_Source\PSoC5/cyfitter_cfg.c **** 			{0x3Eu, 0x50u},
 422:Generated_Source\PSoC5/cyfitter_cfg.c **** 			{0x3Fu, 0x40u},
 423:Generated_Source\PSoC5/cyfitter_cfg.c **** 			{0x40u, 0x14u},
 424:Generated_Source\PSoC5/cyfitter_cfg.c **** 			{0x41u, 0x03u},
 425:Generated_Source\PSoC5/cyfitter_cfg.c **** 			{0x42u, 0x06u},
 426:Generated_Source\PSoC5/cyfitter_cfg.c **** 			{0x49u, 0xFFu},
 427:Generated_Source\PSoC5/cyfitter_cfg.c **** 			{0x4Au, 0xFFu},
 428:Generated_Source\PSoC5/cyfitter_cfg.c **** 			{0x4Bu, 0xFFu},
 429:Generated_Source\PSoC5/cyfitter_cfg.c **** 			{0x4Fu, 0x01u},
 430:Generated_Source\PSoC5/cyfitter_cfg.c **** 			{0x50u, 0x18u},
 431:Generated_Source\PSoC5/cyfitter_cfg.c **** 			{0x52u, 0x90u},
 432:Generated_Source\PSoC5/cyfitter_cfg.c **** 			{0x58u, 0x0Bu},
 433:Generated_Source\PSoC5/cyfitter_cfg.c **** 			{0x59u, 0x0Bu},
 434:Generated_Source\PSoC5/cyfitter_cfg.c **** 			{0x5Au, 0x0Bu},
 435:Generated_Source\PSoC5/cyfitter_cfg.c **** 			{0x5Bu, 0x0Bu},
 436:Generated_Source\PSoC5/cyfitter_cfg.c **** 			{0x5Fu, 0x01u},
 437:Generated_Source\PSoC5/cyfitter_cfg.c **** 			{0x60u, 0x40u},
 438:Generated_Source\PSoC5/cyfitter_cfg.c **** 			{0x62u, 0x40u},
 439:Generated_Source\PSoC5/cyfitter_cfg.c **** 			{0x64u, 0x40u},
 440:Generated_Source\PSoC5/cyfitter_cfg.c **** 			{0x65u, 0x40u},
 441:Generated_Source\PSoC5/cyfitter_cfg.c **** 			{0x66u, 0x80u},
 442:Generated_Source\PSoC5/cyfitter_cfg.c **** 			{0x68u, 0x80u},
 443:Generated_Source\PSoC5/cyfitter_cfg.c **** 			{0x6Au, 0x80u},
 444:Generated_Source\PSoC5/cyfitter_cfg.c **** 			{0x6Cu, 0x80u},
ARM GAS  C:\Users\JAKOVB~2\AppData\Local\Temp\ccztSlne.s 			page 19


 445:Generated_Source\PSoC5/cyfitter_cfg.c **** 			{0x6Eu, 0x80u},
 446:Generated_Source\PSoC5/cyfitter_cfg.c **** 			{0xC0u, 0x51u},
 447:Generated_Source\PSoC5/cyfitter_cfg.c **** 			{0xC1u, 0x03u},
 448:Generated_Source\PSoC5/cyfitter_cfg.c **** 			{0xC2u, 0x06u},
 449:Generated_Source\PSoC5/cyfitter_cfg.c **** 			{0xC9u, 0xFFu},
 450:Generated_Source\PSoC5/cyfitter_cfg.c **** 			{0xCAu, 0xFFu},
 451:Generated_Source\PSoC5/cyfitter_cfg.c **** 			{0xCBu, 0xFFu},
 452:Generated_Source\PSoC5/cyfitter_cfg.c **** 			{0xCDu, 0x83u},
 453:Generated_Source\PSoC5/cyfitter_cfg.c **** 			{0xCEu, 0x03u},
 454:Generated_Source\PSoC5/cyfitter_cfg.c **** 			{0xCFu, 0x01u},
 455:Generated_Source\PSoC5/cyfitter_cfg.c **** 			{0xD0u, 0x18u},
 456:Generated_Source\PSoC5/cyfitter_cfg.c **** 			{0xDAu, 0x08u},
 457:Generated_Source\PSoC5/cyfitter_cfg.c **** 			{0xDFu, 0x01u},
 458:Generated_Source\PSoC5/cyfitter_cfg.c **** 			{0xE0u, 0x40u},
 459:Generated_Source\PSoC5/cyfitter_cfg.c **** 			{0xE2u, 0x40u},
 460:Generated_Source\PSoC5/cyfitter_cfg.c **** 			{0xE4u, 0x40u},
 461:Generated_Source\PSoC5/cyfitter_cfg.c **** 			{0xE5u, 0x40u},
 462:Generated_Source\PSoC5/cyfitter_cfg.c **** 			{0xE6u, 0x80u},
 463:Generated_Source\PSoC5/cyfitter_cfg.c **** 			{0xE8u, 0x80u},
 464:Generated_Source\PSoC5/cyfitter_cfg.c **** 			{0xEAu, 0x80u},
 465:Generated_Source\PSoC5/cyfitter_cfg.c **** 			{0xECu, 0x80u},
 466:Generated_Source\PSoC5/cyfitter_cfg.c **** 			{0xEEu, 0x80u},
 467:Generated_Source\PSoC5/cyfitter_cfg.c **** 			{0x00u, 0x42u},
 468:Generated_Source\PSoC5/cyfitter_cfg.c **** 			{0x01u, 0x02u},
 469:Generated_Source\PSoC5/cyfitter_cfg.c **** 			{0x0Au, 0x10u},
 470:Generated_Source\PSoC5/cyfitter_cfg.c **** 			{0x10u, 0x82u},
 471:Generated_Source\PSoC5/cyfitter_cfg.c **** 			{0x12u, 0x08u},
 472:Generated_Source\PSoC5/cyfitter_cfg.c **** 			{0x18u, 0x41u},
 473:Generated_Source\PSoC5/cyfitter_cfg.c **** 			{0x19u, 0x14u},
 474:Generated_Source\PSoC5/cyfitter_cfg.c **** 			{0x1Au, 0x1Au},
 475:Generated_Source\PSoC5/cyfitter_cfg.c **** 			{0x1Bu, 0x06u},
 476:Generated_Source\PSoC5/cyfitter_cfg.c **** 			{0x21u, 0x20u},
 477:Generated_Source\PSoC5/cyfitter_cfg.c **** 			{0x22u, 0x48u},
 478:Generated_Source\PSoC5/cyfitter_cfg.c **** 			{0x29u, 0x06u},
 479:Generated_Source\PSoC5/cyfitter_cfg.c **** 			{0x2Bu, 0x02u},
 480:Generated_Source\PSoC5/cyfitter_cfg.c **** 			{0x30u, 0x02u},
 481:Generated_Source\PSoC5/cyfitter_cfg.c **** 			{0x31u, 0x20u},
 482:Generated_Source\PSoC5/cyfitter_cfg.c **** 			{0x32u, 0x08u},
 483:Generated_Source\PSoC5/cyfitter_cfg.c **** 			{0x38u, 0x80u},
 484:Generated_Source\PSoC5/cyfitter_cfg.c **** 			{0x39u, 0x02u},
 485:Generated_Source\PSoC5/cyfitter_cfg.c **** 			{0x40u, 0x01u},
 486:Generated_Source\PSoC5/cyfitter_cfg.c **** 			{0x41u, 0x01u},
 487:Generated_Source\PSoC5/cyfitter_cfg.c **** 			{0x42u, 0x10u},
 488:Generated_Source\PSoC5/cyfitter_cfg.c **** 			{0x43u, 0x04u},
 489:Generated_Source\PSoC5/cyfitter_cfg.c **** 			{0x46u, 0x01u},
 490:Generated_Source\PSoC5/cyfitter_cfg.c **** 			{0x47u, 0x04u},
 491:Generated_Source\PSoC5/cyfitter_cfg.c **** 			{0x49u, 0x10u},
 492:Generated_Source\PSoC5/cyfitter_cfg.c **** 			{0x4Eu, 0x05u},
 493:Generated_Source\PSoC5/cyfitter_cfg.c **** 			{0x70u, 0xC2u},
 494:Generated_Source\PSoC5/cyfitter_cfg.c **** 			{0x78u, 0x01u},
 495:Generated_Source\PSoC5/cyfitter_cfg.c **** 			{0x7Fu, 0x01u},
 496:Generated_Source\PSoC5/cyfitter_cfg.c **** 			{0xC0u, 0x09u},
 497:Generated_Source\PSoC5/cyfitter_cfg.c **** 			{0xC2u, 0x04u},
 498:Generated_Source\PSoC5/cyfitter_cfg.c **** 			{0xC4u, 0x0Bu},
 499:Generated_Source\PSoC5/cyfitter_cfg.c **** 			{0xCAu, 0x0Bu},
 500:Generated_Source\PSoC5/cyfitter_cfg.c **** 			{0xCCu, 0x07u},
 501:Generated_Source\PSoC5/cyfitter_cfg.c **** 			{0xCEu, 0x09u},
ARM GAS  C:\Users\JAKOVB~2\AppData\Local\Temp\ccztSlne.s 			page 20


 502:Generated_Source\PSoC5/cyfitter_cfg.c **** 			{0xD0u, 0x5Bu},
 503:Generated_Source\PSoC5/cyfitter_cfg.c **** 			{0xD2u, 0x34u},
 504:Generated_Source\PSoC5/cyfitter_cfg.c **** 			{0xDEu, 0x11u},
 505:Generated_Source\PSoC5/cyfitter_cfg.c **** 			{0xE6u, 0x10u},
 506:Generated_Source\PSoC5/cyfitter_cfg.c **** 			{0x40u, 0x51u},
 507:Generated_Source\PSoC5/cyfitter_cfg.c **** 			{0x41u, 0x03u},
 508:Generated_Source\PSoC5/cyfitter_cfg.c **** 			{0x42u, 0x06u},
 509:Generated_Source\PSoC5/cyfitter_cfg.c **** 			{0x49u, 0xFFu},
 510:Generated_Source\PSoC5/cyfitter_cfg.c **** 			{0x4Au, 0xFFu},
 511:Generated_Source\PSoC5/cyfitter_cfg.c **** 			{0x4Bu, 0xFFu},
 512:Generated_Source\PSoC5/cyfitter_cfg.c **** 			{0x4Du, 0x83u},
 513:Generated_Source\PSoC5/cyfitter_cfg.c **** 			{0x4Eu, 0x03u},
 514:Generated_Source\PSoC5/cyfitter_cfg.c **** 			{0x4Fu, 0x01u},
 515:Generated_Source\PSoC5/cyfitter_cfg.c **** 			{0x50u, 0x18u},
 516:Generated_Source\PSoC5/cyfitter_cfg.c **** 			{0x56u, 0x08u},
 517:Generated_Source\PSoC5/cyfitter_cfg.c **** 			{0x5Au, 0x08u},
 518:Generated_Source\PSoC5/cyfitter_cfg.c **** 			{0x5Bu, 0x04u},
 519:Generated_Source\PSoC5/cyfitter_cfg.c **** 			{0x5Fu, 0x01u},
 520:Generated_Source\PSoC5/cyfitter_cfg.c **** 			{0x60u, 0x40u},
 521:Generated_Source\PSoC5/cyfitter_cfg.c **** 			{0x62u, 0x40u},
 522:Generated_Source\PSoC5/cyfitter_cfg.c **** 			{0x64u, 0x40u},
 523:Generated_Source\PSoC5/cyfitter_cfg.c **** 			{0x65u, 0x40u},
 524:Generated_Source\PSoC5/cyfitter_cfg.c **** 			{0x66u, 0x80u},
 525:Generated_Source\PSoC5/cyfitter_cfg.c **** 			{0x68u, 0x80u},
 526:Generated_Source\PSoC5/cyfitter_cfg.c **** 			{0x6Au, 0x80u},
 527:Generated_Source\PSoC5/cyfitter_cfg.c **** 			{0x6Cu, 0x80u},
 528:Generated_Source\PSoC5/cyfitter_cfg.c **** 			{0x6Eu, 0x80u},
 529:Generated_Source\PSoC5/cyfitter_cfg.c **** 			{0x93u, 0x02u},
 530:Generated_Source\PSoC5/cyfitter_cfg.c **** 			{0x9Fu, 0x01u},
 531:Generated_Source\PSoC5/cyfitter_cfg.c **** 			{0xABu, 0x03u},
 532:Generated_Source\PSoC5/cyfitter_cfg.c **** 			{0xB7u, 0x03u},
 533:Generated_Source\PSoC5/cyfitter_cfg.c **** 			{0xC0u, 0x14u},
 534:Generated_Source\PSoC5/cyfitter_cfg.c **** 			{0xC1u, 0x03u},
 535:Generated_Source\PSoC5/cyfitter_cfg.c **** 			{0xC2u, 0x06u},
 536:Generated_Source\PSoC5/cyfitter_cfg.c **** 			{0xC5u, 0xECu},
 537:Generated_Source\PSoC5/cyfitter_cfg.c **** 			{0xC7u, 0x20u},
 538:Generated_Source\PSoC5/cyfitter_cfg.c **** 			{0xC8u, 0x23u},
 539:Generated_Source\PSoC5/cyfitter_cfg.c **** 			{0xC9u, 0xFFu},
 540:Generated_Source\PSoC5/cyfitter_cfg.c **** 			{0xCAu, 0xFFu},
 541:Generated_Source\PSoC5/cyfitter_cfg.c **** 			{0xCBu, 0xFFu},
 542:Generated_Source\PSoC5/cyfitter_cfg.c **** 			{0xCDu, 0x83u},
 543:Generated_Source\PSoC5/cyfitter_cfg.c **** 			{0xCEu, 0x03u},
 544:Generated_Source\PSoC5/cyfitter_cfg.c **** 			{0xCFu, 0x01u},
 545:Generated_Source\PSoC5/cyfitter_cfg.c **** 			{0xD0u, 0x18u},
 546:Generated_Source\PSoC5/cyfitter_cfg.c **** 			{0xD4u, 0x03u},
 547:Generated_Source\PSoC5/cyfitter_cfg.c **** 			{0xD9u, 0x04u},
 548:Generated_Source\PSoC5/cyfitter_cfg.c **** 			{0xDAu, 0x0Bu},
 549:Generated_Source\PSoC5/cyfitter_cfg.c **** 			{0xDBu, 0x0Bu},
 550:Generated_Source\PSoC5/cyfitter_cfg.c **** 			{0xDFu, 0x05u},
 551:Generated_Source\PSoC5/cyfitter_cfg.c **** 			{0xE0u, 0x40u},
 552:Generated_Source\PSoC5/cyfitter_cfg.c **** 			{0xE2u, 0x40u},
 553:Generated_Source\PSoC5/cyfitter_cfg.c **** 			{0xE4u, 0x40u},
 554:Generated_Source\PSoC5/cyfitter_cfg.c **** 			{0xE5u, 0x40u},
 555:Generated_Source\PSoC5/cyfitter_cfg.c **** 			{0xE6u, 0x80u},
 556:Generated_Source\PSoC5/cyfitter_cfg.c **** 			{0xE8u, 0x80u},
 557:Generated_Source\PSoC5/cyfitter_cfg.c **** 			{0xEAu, 0x80u},
 558:Generated_Source\PSoC5/cyfitter_cfg.c **** 			{0xECu, 0x80u},
ARM GAS  C:\Users\JAKOVB~2\AppData\Local\Temp\ccztSlne.s 			page 21


 559:Generated_Source\PSoC5/cyfitter_cfg.c **** 			{0xEEu, 0x80u},
 560:Generated_Source\PSoC5/cyfitter_cfg.c **** 			{0x20u, 0x02u},
 561:Generated_Source\PSoC5/cyfitter_cfg.c **** 			{0x21u, 0x80u},
 562:Generated_Source\PSoC5/cyfitter_cfg.c **** 			{0x2Au, 0x10u},
 563:Generated_Source\PSoC5/cyfitter_cfg.c **** 			{0x30u, 0x02u},
 564:Generated_Source\PSoC5/cyfitter_cfg.c **** 			{0x31u, 0x80u},
 565:Generated_Source\PSoC5/cyfitter_cfg.c **** 			{0x40u, 0x01u},
 566:Generated_Source\PSoC5/cyfitter_cfg.c **** 			{0x41u, 0x01u},
 567:Generated_Source\PSoC5/cyfitter_cfg.c **** 			{0x43u, 0x04u},
 568:Generated_Source\PSoC5/cyfitter_cfg.c **** 			{0x46u, 0x01u},
 569:Generated_Source\PSoC5/cyfitter_cfg.c **** 			{0x47u, 0x04u},
 570:Generated_Source\PSoC5/cyfitter_cfg.c **** 			{0x49u, 0x15u},
 571:Generated_Source\PSoC5/cyfitter_cfg.c **** 			{0x4Eu, 0x05u},
 572:Generated_Source\PSoC5/cyfitter_cfg.c **** 			{0x51u, 0x01u},
 573:Generated_Source\PSoC5/cyfitter_cfg.c **** 			{0x52u, 0x01u},
 574:Generated_Source\PSoC5/cyfitter_cfg.c **** 			{0x59u, 0x15u},
 575:Generated_Source\PSoC5/cyfitter_cfg.c **** 			{0x5Au, 0x80u},
 576:Generated_Source\PSoC5/cyfitter_cfg.c **** 			{0x5Fu, 0x80u},
 577:Generated_Source\PSoC5/cyfitter_cfg.c **** 			{0x64u, 0x01u},
 578:Generated_Source\PSoC5/cyfitter_cfg.c **** 			{0x67u, 0x02u},
 579:Generated_Source\PSoC5/cyfitter_cfg.c **** 			{0x78u, 0x01u},
 580:Generated_Source\PSoC5/cyfitter_cfg.c **** 			{0x7Bu, 0x04u},
 581:Generated_Source\PSoC5/cyfitter_cfg.c **** 			{0x7Fu, 0x01u},
 582:Generated_Source\PSoC5/cyfitter_cfg.c **** 			{0x90u, 0x01u},
 583:Generated_Source\PSoC5/cyfitter_cfg.c **** 			{0x92u, 0x8Au},
 584:Generated_Source\PSoC5/cyfitter_cfg.c **** 			{0x95u, 0x02u},
 585:Generated_Source\PSoC5/cyfitter_cfg.c **** 			{0x97u, 0x02u},
 586:Generated_Source\PSoC5/cyfitter_cfg.c **** 			{0x99u, 0x10u},
 587:Generated_Source\PSoC5/cyfitter_cfg.c **** 			{0x9Bu, 0x04u},
 588:Generated_Source\PSoC5/cyfitter_cfg.c **** 			{0x9Cu, 0x01u},
 589:Generated_Source\PSoC5/cyfitter_cfg.c **** 			{0x9Eu, 0x01u},
 590:Generated_Source\PSoC5/cyfitter_cfg.c **** 			{0xA3u, 0x04u},
 591:Generated_Source\PSoC5/cyfitter_cfg.c **** 			{0xA4u, 0x01u},
 592:Generated_Source\PSoC5/cyfitter_cfg.c **** 			{0xCAu, 0x04u},
 593:Generated_Source\PSoC5/cyfitter_cfg.c **** 			{0xCCu, 0x09u},
 594:Generated_Source\PSoC5/cyfitter_cfg.c **** 			{0xD0u, 0x5Bu},
 595:Generated_Source\PSoC5/cyfitter_cfg.c **** 			{0xD2u, 0x34u},
 596:Generated_Source\PSoC5/cyfitter_cfg.c **** 			{0xD6u, 0x1Fu},
 597:Generated_Source\PSoC5/cyfitter_cfg.c **** 			{0xD8u, 0x10u},
 598:Generated_Source\PSoC5/cyfitter_cfg.c **** 			{0xDEu, 0x15u},
 599:Generated_Source\PSoC5/cyfitter_cfg.c **** 			{0xE2u, 0x02u},
 600:Generated_Source\PSoC5/cyfitter_cfg.c **** 			{0x40u, 0x65u},
 601:Generated_Source\PSoC5/cyfitter_cfg.c **** 			{0x47u, 0x20u},
 602:Generated_Source\PSoC5/cyfitter_cfg.c **** 			{0x48u, 0x20u},
 603:Generated_Source\PSoC5/cyfitter_cfg.c **** 			{0x49u, 0xFFu},
 604:Generated_Source\PSoC5/cyfitter_cfg.c **** 			{0x4Au, 0xFFu},
 605:Generated_Source\PSoC5/cyfitter_cfg.c **** 			{0x4Bu, 0xFFu},
 606:Generated_Source\PSoC5/cyfitter_cfg.c **** 			{0x5Au, 0x04u},
 607:Generated_Source\PSoC5/cyfitter_cfg.c **** 			{0x5Fu, 0x01u},
 608:Generated_Source\PSoC5/cyfitter_cfg.c **** 			{0x60u, 0x80u},
 609:Generated_Source\PSoC5/cyfitter_cfg.c **** 			{0x62u, 0x40u},
 610:Generated_Source\PSoC5/cyfitter_cfg.c **** 			{0x63u, 0x40u},
 611:Generated_Source\PSoC5/cyfitter_cfg.c **** 			{0x64u, 0x40u},
 612:Generated_Source\PSoC5/cyfitter_cfg.c **** 			{0x65u, 0x40u},
 613:Generated_Source\PSoC5/cyfitter_cfg.c **** 			{0x66u, 0x80u},
 614:Generated_Source\PSoC5/cyfitter_cfg.c **** 			{0x68u, 0x80u},
 615:Generated_Source\PSoC5/cyfitter_cfg.c **** 			{0x6Au, 0x80u},
ARM GAS  C:\Users\JAKOVB~2\AppData\Local\Temp\ccztSlne.s 			page 22


 616:Generated_Source\PSoC5/cyfitter_cfg.c **** 			{0x6Cu, 0x80u},
 617:Generated_Source\PSoC5/cyfitter_cfg.c **** 			{0x6Eu, 0x80u},
 618:Generated_Source\PSoC5/cyfitter_cfg.c **** 			{0x48u, 0x01u},
 619:Generated_Source\PSoC5/cyfitter_cfg.c **** 			{0x4Au, 0x08u},
 620:Generated_Source\PSoC5/cyfitter_cfg.c **** 			{0x50u, 0x02u},
 621:Generated_Source\PSoC5/cyfitter_cfg.c **** 			{0x9Fu, 0x80u},
 622:Generated_Source\PSoC5/cyfitter_cfg.c **** 			{0xA0u, 0x01u},
 623:Generated_Source\PSoC5/cyfitter_cfg.c **** 			{0xA2u, 0x08u},
 624:Generated_Source\PSoC5/cyfitter_cfg.c **** 			{0xA4u, 0x02u},
 625:Generated_Source\PSoC5/cyfitter_cfg.c **** 			{0xAAu, 0x08u},
 626:Generated_Source\PSoC5/cyfitter_cfg.c **** 			{0xABu, 0x04u},
 627:Generated_Source\PSoC5/cyfitter_cfg.c **** 			{0xAEu, 0x10u},
 628:Generated_Source\PSoC5/cyfitter_cfg.c **** 			{0xB0u, 0x01u},
 629:Generated_Source\PSoC5/cyfitter_cfg.c **** 			{0xD2u, 0x0Cu},
 630:Generated_Source\PSoC5/cyfitter_cfg.c **** 			{0xEAu, 0x80u},
 631:Generated_Source\PSoC5/cyfitter_cfg.c **** 			{0x9Fu, 0x80u},
 632:Generated_Source\PSoC5/cyfitter_cfg.c **** 			{0xE2u, 0x02u},
 633:Generated_Source\PSoC5/cyfitter_cfg.c **** 			{0xE6u, 0x10u},
 634:Generated_Source\PSoC5/cyfitter_cfg.c **** 			{0x87u, 0x80u},
 635:Generated_Source\PSoC5/cyfitter_cfg.c **** 			{0x9Fu, 0x80u},
 636:Generated_Source\PSoC5/cyfitter_cfg.c **** 			{0xEEu, 0x02u},
 637:Generated_Source\PSoC5/cyfitter_cfg.c **** 			{0xEEu, 0x02u},
 638:Generated_Source\PSoC5/cyfitter_cfg.c **** 			{0x31u, 0x20u},
 639:Generated_Source\PSoC5/cyfitter_cfg.c **** 			{0x32u, 0x02u},
 640:Generated_Source\PSoC5/cyfitter_cfg.c **** 			{0x36u, 0x40u},
 641:Generated_Source\PSoC5/cyfitter_cfg.c **** 			{0x37u, 0x04u},
 642:Generated_Source\PSoC5/cyfitter_cfg.c **** 			{0x8Fu, 0x04u},
 643:Generated_Source\PSoC5/cyfitter_cfg.c **** 			{0xCCu, 0xF0u},
 644:Generated_Source\PSoC5/cyfitter_cfg.c **** 			{0x0Du, 0x02u},
 645:Generated_Source\PSoC5/cyfitter_cfg.c **** 			{0x0Fu, 0x80u},
 646:Generated_Source\PSoC5/cyfitter_cfg.c **** 			{0x50u, 0x08u},
 647:Generated_Source\PSoC5/cyfitter_cfg.c **** 			{0x51u, 0x20u},
 648:Generated_Source\PSoC5/cyfitter_cfg.c **** 			{0x57u, 0x20u},
 649:Generated_Source\PSoC5/cyfitter_cfg.c **** 			{0x86u, 0x02u},
 650:Generated_Source\PSoC5/cyfitter_cfg.c **** 			{0xA5u, 0x20u},
 651:Generated_Source\PSoC5/cyfitter_cfg.c **** 			{0xA6u, 0x42u},
 652:Generated_Source\PSoC5/cyfitter_cfg.c **** 			{0xC2u, 0x20u},
 653:Generated_Source\PSoC5/cyfitter_cfg.c **** 			{0xD4u, 0x60u},
 654:Generated_Source\PSoC5/cyfitter_cfg.c **** 			{0xE2u, 0x40u},
 655:Generated_Source\PSoC5/cyfitter_cfg.c **** 			{0xA6u, 0x40u},
 656:Generated_Source\PSoC5/cyfitter_cfg.c **** 			{0xA8u, 0x08u},
 657:Generated_Source\PSoC5/cyfitter_cfg.c **** 			{0xABu, 0x40u},
 658:Generated_Source\PSoC5/cyfitter_cfg.c **** 			{0xADu, 0x02u},
 659:Generated_Source\PSoC5/cyfitter_cfg.c **** 			{0xB3u, 0x20u},
 660:Generated_Source\PSoC5/cyfitter_cfg.c **** 			{0xE8u, 0x60u},
 661:Generated_Source\PSoC5/cyfitter_cfg.c **** 			{0xEAu, 0x80u},
 662:Generated_Source\PSoC5/cyfitter_cfg.c **** 			{0xA6u, 0x40u},
 663:Generated_Source\PSoC5/cyfitter_cfg.c **** 			{0x8Fu, 0x01u},
 664:Generated_Source\PSoC5/cyfitter_cfg.c **** 			{0xE6u, 0x08u},
 665:Generated_Source\PSoC5/cyfitter_cfg.c **** 			{0x84u, 0x08u},
 666:Generated_Source\PSoC5/cyfitter_cfg.c **** 			{0x97u, 0x01u},
 667:Generated_Source\PSoC5/cyfitter_cfg.c **** 			{0x97u, 0x01u},
 668:Generated_Source\PSoC5/cyfitter_cfg.c **** 			{0xA4u, 0x08u},
 669:Generated_Source\PSoC5/cyfitter_cfg.c **** 			{0x0Bu, 0x41u},
 670:Generated_Source\PSoC5/cyfitter_cfg.c **** 			{0x0Cu, 0x08u},
 671:Generated_Source\PSoC5/cyfitter_cfg.c **** 			{0x97u, 0x01u},
 672:Generated_Source\PSoC5/cyfitter_cfg.c **** 			{0xA4u, 0x08u},
ARM GAS  C:\Users\JAKOVB~2\AppData\Local\Temp\ccztSlne.s 			page 23


 673:Generated_Source\PSoC5/cyfitter_cfg.c **** 			{0xC2u, 0x0Eu},
 674:Generated_Source\PSoC5/cyfitter_cfg.c **** 			{0x23u, 0x20u},
 675:Generated_Source\PSoC5/cyfitter_cfg.c **** 			{0x87u, 0x20u},
 676:Generated_Source\PSoC5/cyfitter_cfg.c **** 			{0xAEu, 0x40u},
 677:Generated_Source\PSoC5/cyfitter_cfg.c **** 			{0xC8u, 0x40u},
 678:Generated_Source\PSoC5/cyfitter_cfg.c **** 			{0xE0u, 0x40u},
 679:Generated_Source\PSoC5/cyfitter_cfg.c **** 			{0xEEu, 0x40u},
 680:Generated_Source\PSoC5/cyfitter_cfg.c **** 			{0xAFu, 0x40u},
 681:Generated_Source\PSoC5/cyfitter_cfg.c **** 			{0x00u, 0x01u},
 682:Generated_Source\PSoC5/cyfitter_cfg.c **** 			{0x08u, 0x01u},
 683:Generated_Source\PSoC5/cyfitter_cfg.c **** 			{0x0Au, 0x01u},
 684:Generated_Source\PSoC5/cyfitter_cfg.c **** 			{0x00u, 0xABu},
 685:Generated_Source\PSoC5/cyfitter_cfg.c **** 		};
 686:Generated_Source\PSoC5/cyfitter_cfg.c **** 
 687:Generated_Source\PSoC5/cyfitter_cfg.c **** 
 688:Generated_Source\PSoC5/cyfitter_cfg.c **** 
 689:Generated_Source\PSoC5/cyfitter_cfg.c **** 		CYPACKED typedef struct {
 690:Generated_Source\PSoC5/cyfitter_cfg.c **** 			void CYFAR *address;
 691:Generated_Source\PSoC5/cyfitter_cfg.c **** 			uint16 size;
 692:Generated_Source\PSoC5/cyfitter_cfg.c **** 		} CYPACKED_ATTR cfg_memset_t;
 693:Generated_Source\PSoC5/cyfitter_cfg.c **** 
 694:Generated_Source\PSoC5/cyfitter_cfg.c **** 		static const cfg_memset_t CYCODE cfg_memset_list[] = {
 695:Generated_Source\PSoC5/cyfitter_cfg.c **** 			/* address, size */
 696:Generated_Source\PSoC5/cyfitter_cfg.c **** 			{(void CYFAR *)(CYREG_PRT2_DR), 80u},
 697:Generated_Source\PSoC5/cyfitter_cfg.c **** 			{(void CYFAR *)(CYREG_PRT12_DR), 16u},
 698:Generated_Source\PSoC5/cyfitter_cfg.c **** 			{(void CYFAR *)(CYDEV_UCFG_B0_P0_U0_BASE), 4096u},
 699:Generated_Source\PSoC5/cyfitter_cfg.c **** 			{(void CYFAR *)(CYDEV_UCFG_B1_P2_U0_BASE), 2048u},
 700:Generated_Source\PSoC5/cyfitter_cfg.c **** 			{(void CYFAR *)(CYDEV_UCFG_DSI0_BASE), 2560u},
 701:Generated_Source\PSoC5/cyfitter_cfg.c **** 			{(void CYFAR *)(CYDEV_UCFG_DSI12_BASE), 512u},
 702:Generated_Source\PSoC5/cyfitter_cfg.c **** 			{(void CYFAR *)(CYREG_BCTL0_MDCLK_EN), 32u},
 703:Generated_Source\PSoC5/cyfitter_cfg.c **** 		};
 704:Generated_Source\PSoC5/cyfitter_cfg.c **** 
 705:Generated_Source\PSoC5/cyfitter_cfg.c **** 		uint8 CYDATA i;
 706:Generated_Source\PSoC5/cyfitter_cfg.c **** 
 707:Generated_Source\PSoC5/cyfitter_cfg.c **** 		/* Zero out critical memory blocks before beginning configuration */
 708:Generated_Source\PSoC5/cyfitter_cfg.c **** 		for (i = 0u; i < (sizeof(cfg_memset_list)/sizeof(cfg_memset_list[0])); i++)
 577              		.loc 1 708 0
 578 0018 0023     		movs	r3, #0
 579 001a FB71     		strb	r3, [r7, #7]
 580 001c 13E0     		b	.L27
 581              	.L28:
 582              	.LBB4:
 709:Generated_Source\PSoC5/cyfitter_cfg.c **** 		{
 710:Generated_Source\PSoC5/cyfitter_cfg.c **** 			const cfg_memset_t CYCODE * CYDATA ms = &cfg_memset_list[i];
 583              		.loc 1 710 0 discriminator 3
 584 001e FA79     		ldrb	r2, [r7, #7]	@ zero_extendqisi2
 585 0020 1346     		mov	r3, r2
 586 0022 5B00     		lsls	r3, r3, #1
 587 0024 1344     		add	r3, r3, r2
 588 0026 5B00     		lsls	r3, r3, #1
 589 0028 324A     		ldr	r2, .L29+4
 590 002a 1344     		add	r3, r3, r2
 591 002c 3B60     		str	r3, [r7]
 711:Generated_Source\PSoC5/cyfitter_cfg.c **** 			CYMEMZERO(ms->address, (size_t)(uint32)(ms->size));
 592              		.loc 1 711 0 discriminator 3
 593 002e 3B68     		ldr	r3, [r7]
 594 0030 1A68     		ldr	r2, [r3]	@ unaligned
ARM GAS  C:\Users\JAKOVB~2\AppData\Local\Temp\ccztSlne.s 			page 24


 595 0032 3B68     		ldr	r3, [r7]
 596 0034 9B88     		ldrh	r3, [r3, #4]	@ unaligned
 597 0036 9BB2     		uxth	r3, r3
 598 0038 1946     		mov	r1, r3
 599 003a 1046     		mov	r0, r2
 600 003c FFF7FEFF 		bl	CYMEMZERO
 601              	.LBE4:
 708:Generated_Source\PSoC5/cyfitter_cfg.c **** 		{
 602              		.loc 1 708 0 discriminator 3
 603 0040 FB79     		ldrb	r3, [r7, #7]	@ zero_extendqisi2
 604 0042 0133     		adds	r3, r3, #1
 605 0044 FB71     		strb	r3, [r7, #7]
 606              	.L27:
 708:Generated_Source\PSoC5/cyfitter_cfg.c **** 		{
 607              		.loc 1 708 0 is_stmt 0 discriminator 1
 608 0046 FB79     		ldrb	r3, [r7, #7]	@ zero_extendqisi2
 609 0048 062B     		cmp	r3, #6
 610 004a E8D9     		bls	.L28
 712:Generated_Source\PSoC5/cyfitter_cfg.c **** 		}
 713:Generated_Source\PSoC5/cyfitter_cfg.c **** 
 714:Generated_Source\PSoC5/cyfitter_cfg.c **** 		cfg_write_bytes32(cy_cfg_addr_table, cy_cfg_data_table);
 611              		.loc 1 714 0 is_stmt 1
 612 004c 2A49     		ldr	r1, .L29+8
 613 004e 2B48     		ldr	r0, .L29+12
 614 0050 FFF7FEFF 		bl	cfg_write_bytes32
 715:Generated_Source\PSoC5/cyfitter_cfg.c **** 
 716:Generated_Source\PSoC5/cyfitter_cfg.c **** 		/* B0_P1_U1_CFG24 Starting address: CYDEV_UCFG_B0_P1_U1_CFG24 */
 717:Generated_Source\PSoC5/cyfitter_cfg.c **** 		CY_SET_XTND_REG32((void CYFAR *)(CYREG_B0_P1_U1_CFG24), 0x4B0B0400u);
 615              		.loc 1 717 0
 616 0054 2A4B     		ldr	r3, .L29+16
 617 0056 2B4A     		ldr	r2, .L29+20
 618 0058 1A60     		str	r2, [r3]
 718:Generated_Source\PSoC5/cyfitter_cfg.c **** 
 719:Generated_Source\PSoC5/cyfitter_cfg.c **** 		/* Enable digital routing */
 720:Generated_Source\PSoC5/cyfitter_cfg.c **** 		CY_SET_XTND_REG8((void CYFAR *)CYREG_BCTL0_BANK_CTL, CY_GET_XTND_REG8((void CYFAR *)CYREG_BCTL0_B
 619              		.loc 1 720 0
 620 005a 2B4A     		ldr	r2, .L29+24
 621 005c 2A4B     		ldr	r3, .L29+24
 622 005e 1B78     		ldrb	r3, [r3]
 623 0060 DBB2     		uxtb	r3, r3
 624 0062 43F00203 		orr	r3, r3, #2
 625 0066 DBB2     		uxtb	r3, r3
 626 0068 1370     		strb	r3, [r2]
 721:Generated_Source\PSoC5/cyfitter_cfg.c **** 		CY_SET_XTND_REG8((void CYFAR *)CYREG_BCTL1_BANK_CTL, CY_GET_XTND_REG8((void CYFAR *)CYREG_BCTL1_B
 627              		.loc 1 721 0
 628 006a 284A     		ldr	r2, .L29+28
 629 006c 274B     		ldr	r3, .L29+28
 630 006e 1B78     		ldrb	r3, [r3]
 631 0070 DBB2     		uxtb	r3, r3
 632 0072 43F00203 		orr	r3, r3, #2
 633 0076 DBB2     		uxtb	r3, r3
 634 0078 1370     		strb	r3, [r2]
 722:Generated_Source\PSoC5/cyfitter_cfg.c **** 
 723:Generated_Source\PSoC5/cyfitter_cfg.c **** 		/* Enable UDB array */
 724:Generated_Source\PSoC5/cyfitter_cfg.c **** 		CY_SET_XTND_REG8((void CYFAR *)CYREG_PM_ACT_CFG0, CY_GET_XTND_REG8((void CYFAR *)CYREG_PM_ACT_CFG
 635              		.loc 1 724 0
 636 007a 254A     		ldr	r2, .L29+32
ARM GAS  C:\Users\JAKOVB~2\AppData\Local\Temp\ccztSlne.s 			page 25


 637 007c 244B     		ldr	r3, .L29+32
 638 007e 1B78     		ldrb	r3, [r3]
 639 0080 DBB2     		uxtb	r3, r3
 640 0082 43F04003 		orr	r3, r3, #64
 641 0086 DBB2     		uxtb	r3, r3
 642 0088 1370     		strb	r3, [r2]
 725:Generated_Source\PSoC5/cyfitter_cfg.c **** 		CY_SET_XTND_REG8((void CYFAR *)CYREG_PM_AVAIL_CR2, CY_GET_XTND_REG8((void CYFAR *)CYREG_PM_AVAIL_
 643              		.loc 1 725 0
 644 008a 224A     		ldr	r2, .L29+36
 645 008c 214B     		ldr	r3, .L29+36
 646 008e 1B78     		ldrb	r3, [r3]
 647 0090 DBB2     		uxtb	r3, r3
 648 0092 43F01003 		orr	r3, r3, #16
 649 0096 DBB2     		uxtb	r3, r3
 650 0098 1370     		strb	r3, [r2]
 651              	.LBE3:
 726:Generated_Source\PSoC5/cyfitter_cfg.c **** 	}
 727:Generated_Source\PSoC5/cyfitter_cfg.c **** 
 728:Generated_Source\PSoC5/cyfitter_cfg.c **** 
 729:Generated_Source\PSoC5/cyfitter_cfg.c **** 	/* Perform second pass device configuration. These items must be configured in specific order afte
 730:Generated_Source\PSoC5/cyfitter_cfg.c **** 	CYCONFIGCPYCODE((void CYFAR *)(CYREG_PRT0_DM0), (const void CYCODE *)(BS_IOPINS0_0_VAL), 8u);
 652              		.loc 1 730 0
 653 009a 0822     		movs	r2, #8
 654 009c 1E49     		ldr	r1, .L29+40
 655 009e 1F48     		ldr	r0, .L29+44
 656 00a0 FFF7FEFF 		bl	CYCONFIGCPYCODE
 731:Generated_Source\PSoC5/cyfitter_cfg.c **** 	CYCONFIGCPYCODE((void CYFAR *)(CYREG_PRT15_DR), (const void CYCODE *)(BS_IOPINS0_8_VAL), 10u);
 657              		.loc 1 731 0
 658 00a4 0A22     		movs	r2, #10
 659 00a6 1E49     		ldr	r1, .L29+48
 660 00a8 1E48     		ldr	r0, .L29+52
 661 00aa FFF7FEFF 		bl	CYCONFIGCPYCODE
 732:Generated_Source\PSoC5/cyfitter_cfg.c **** 	CYCONFIGCPYCODE((void CYFAR *)(CYREG_PRT1_DM0), (const void CYCODE *)(BS_IOPINS0_1_VAL), 8u);
 662              		.loc 1 732 0
 663 00ae 0822     		movs	r2, #8
 664 00b0 1D49     		ldr	r1, .L29+56
 665 00b2 1E48     		ldr	r0, .L29+60
 666 00b4 FFF7FEFF 		bl	CYCONFIGCPYCODE
 733:Generated_Source\PSoC5/cyfitter_cfg.c **** 	/* Switch Boost to the precision bandgap reference from its internal reference */
 734:Generated_Source\PSoC5/cyfitter_cfg.c **** 	CY_SET_REG8((void CYXDATA *)CYREG_BOOST_CR2, (CY_GET_REG8((void CYXDATA *)CYREG_BOOST_CR2) | 0x08u
 667              		.loc 1 734 0
 668 00b8 1D4A     		ldr	r2, .L29+64
 669 00ba 1D4B     		ldr	r3, .L29+64
 670 00bc 1B78     		ldrb	r3, [r3]
 671 00be DBB2     		uxtb	r3, r3
 672 00c0 43F00803 		orr	r3, r3, #8
 673 00c4 DBB2     		uxtb	r3, r3
 674 00c6 1370     		strb	r3, [r2]
 735:Generated_Source\PSoC5/cyfitter_cfg.c **** 
 736:Generated_Source\PSoC5/cyfitter_cfg.c **** 	/* Set Flash Cycles based on max possible frequency in case a glitch occurs during ClockSetup(). *
 737:Generated_Source\PSoC5/cyfitter_cfg.c **** 	CY_SET_XTND_REG8((void CYFAR *)(CYREG_CACHE_CC_CTL), (((CYDEV_INSTRUCT_CACHE_ENABLED) != 0) ? 0x61
 675              		.loc 1 737 0
 676 00c8 1A4B     		ldr	r3, .L29+68
 677 00ca 6022     		movs	r2, #96
 678 00cc 1A70     		strb	r2, [r3]
 738:Generated_Source\PSoC5/cyfitter_cfg.c **** 	/* Setup clocks based on selections from Clock DWR */
 739:Generated_Source\PSoC5/cyfitter_cfg.c **** 	ClockSetup();
ARM GAS  C:\Users\JAKOVB~2\AppData\Local\Temp\ccztSlne.s 			page 26


 679              		.loc 1 739 0
 680 00ce FFF7FEFF 		bl	ClockSetup
 740:Generated_Source\PSoC5/cyfitter_cfg.c **** 	/* Set Flash Cycles based on newly configured 24.00MHz Bus Clock. */
 741:Generated_Source\PSoC5/cyfitter_cfg.c **** 	CY_SET_XTND_REG8((void CYFAR *)(CYREG_CACHE_CC_CTL), (((CYDEV_INSTRUCT_CACHE_ENABLED) != 0) ? 0x81
 681              		.loc 1 741 0
 682 00d2 184B     		ldr	r3, .L29+68
 683 00d4 8022     		movs	r2, #128
 684 00d6 1A70     		strb	r2, [r3]
 742:Generated_Source\PSoC5/cyfitter_cfg.c **** 
 743:Generated_Source\PSoC5/cyfitter_cfg.c **** 	/* Perform basic analog initialization to defaults */
 744:Generated_Source\PSoC5/cyfitter_cfg.c **** 	AnalogSetDefault();
 685              		.loc 1 744 0
 686 00d8 FFF7FEFF 		bl	AnalogSetDefault
 745:Generated_Source\PSoC5/cyfitter_cfg.c **** 
 746:Generated_Source\PSoC5/cyfitter_cfg.c **** 	/* Configure alternate active mode */
 747:Generated_Source\PSoC5/cyfitter_cfg.c **** 	CYCONFIGCPY((void CYFAR *)CYDEV_PM_STBY_BASE, (const void CYFAR *)CYDEV_PM_ACT_BASE, 14u);
 687              		.loc 1 747 0
 688 00dc 0E22     		movs	r2, #14
 689 00de 0C49     		ldr	r1, .L29+32
 690 00e0 1548     		ldr	r0, .L29+72
 691 00e2 FFF7FEFF 		bl	CYCONFIGCPY
 748:Generated_Source\PSoC5/cyfitter_cfg.c **** }
 692              		.loc 1 748 0
 693 00e6 00BF     		nop
 694 00e8 0837     		adds	r7, r7, #8
 695              		.cfi_def_cfa_offset 8
 696 00ea BD46     		mov	sp, r7
 697              		.cfi_def_cfa_register 13
 698              		@ sp needed
 699 00ec 80BD     		pop	{r7, pc}
 700              	.L30:
 701 00ee 00BF     		.align	2
 702              	.L29:
 703 00f0 E8460040 		.word	1073759976
 704 00f4 00000000 		.word	cfg_memset_list.5022
 705 00f8 94000000 		.word	cy_cfg_data_table.5017
 706 00fc 2C000000 		.word	cy_cfg_addr_table.5016
 707 0100 D8020140 		.word	1073808088
 708 0104 00040B4B 		.word	1259013120
 709 0108 03500140 		.word	1073827843
 710 010c 13500140 		.word	1073827859
 711 0110 A0430040 		.word	1073759136
 712 0114 C2430040 		.word	1073759170
 713 0118 E0020000 		.word	BS_IOPINS0_0_VAL.5013
 714 011c 02510040 		.word	1073762562
 715 0120 E8020000 		.word	BS_IOPINS0_8_VAL.5014
 716 0124 F0510040 		.word	1073762800
 717 0128 F4020000 		.word	BS_IOPINS0_1_VAL.5015
 718 012c 12510040 		.word	1073762578
 719 0130 22430040 		.word	1073759010
 720 0134 00480040 		.word	1073760256
 721 0138 B0430040 		.word	1073759152
 722              		.cfi_endproc
 723              	.LFE8:
 724              		.size	cyfitter_cfg, .-cyfitter_cfg
 725              		.section	.rodata
 726              		.align	2
ARM GAS  C:\Users\JAKOVB~2\AppData\Local\Temp\ccztSlne.s 			page 27


 727              		.type	cfg_memset_list.5022, %object
 728              		.size	cfg_memset_list.5022, 42
 729              	cfg_memset_list.5022:
 730 0000 20510040 		.word	1073762592
 731 0004 5000     		.short	80
 732 0006 C0510040 		.4byte	1073762752
 733 000a 1000     		.short	16
 734 000c 00000140 		.word	1073807360
 735 0010 0010     		.short	4096
 736 0012 00140140 		.4byte	1073812480
 737 0016 0008     		.short	2048
 738 0018 00400140 		.word	1073823744
 739 001c 000A     		.short	2560
 740 001e 004C0140 		.4byte	1073826816
 741 0022 0002     		.short	512
 742 0024 00500140 		.word	1073827840
 743 0028 2000     		.short	32
 744 002a 0000     		.align	2
 745              		.type	cy_cfg_addr_table.5016, %object
 746              		.size	cy_cfg_addr_table.5016, 104
 747              	cy_cfg_addr_table.5016:
 748 002c 01450040 		.word	1073759489
 749 0030 02520040 		.word	1073762818
 750 0034 02640040 		.word	1073767426
 751 0038 46000140 		.word	1073807430
 752 003c 27010140 		.word	1073807655
 753 0040 36020140 		.word	1073807926
 754 0044 28030140 		.word	1073808168
 755 0048 12040140 		.word	1073808402
 756 004c 0D050140 		.word	1073808653
 757 0050 01070140 		.word	1073809153
 758 0054 010D0140 		.word	1073810689
 759 0058 010F0140 		.word	1073811201
 760 005c 03170140 		.word	1073813251
 761 0060 01190140 		.word	1073813761
 762 0064 06400140 		.word	1073823750
 763 0068 0B410140 		.word	1073824011
 764 006c 07420140 		.word	1073824263
 765 0070 01430140 		.word	1073824513
 766 0074 02440140 		.word	1073824770
 767 0078 02450140 		.word	1073825026
 768 007c 02460140 		.word	1073825282
 769 0080 05470140 		.word	1073825541
 770 0084 06480140 		.word	1073825798
 771 0088 014C0140 		.word	1073826817
 772 008c 03500140 		.word	1073827843
 773 0090 01510140 		.word	1073828097
 774              		.align	2
 775              		.type	cy_cfg_data_table.5017, %object
 776              		.size	cy_cfg_data_table.5017, 586
 777              	cy_cfg_data_table.5017:
 778 0094 7E       		.byte	126
 779 0095 02       		.byte	2
 780 0096 00       		.byte	0
 781 0097 02       		.byte	2
 782 0098 7C       		.byte	124
 783 0099 40       		.byte	64
ARM GAS  C:\Users\JAKOVB~2\AppData\Local\Temp\ccztSlne.s 			page 28


 784 009a 24       		.byte	36
 785 009b 17       		.byte	23
 786 009c 83       		.byte	-125
 787 009d 0F       		.byte	15
 788 009e 00       		.byte	0
 789 009f 08       		.byte	8
 790 00a0 02       		.byte	2
 791 00a1 02       		.byte	2
 792 00a2 03       		.byte	3
 793 00a3 08       		.byte	8
 794 00a4 0E       		.byte	14
 795 00a5 0D       		.byte	13
 796 00a6 0F       		.byte	15
 797 00a7 0B       		.byte	11
 798 00a8 13       		.byte	19
 799 00a9 0B       		.byte	11
 800 00aa 14       		.byte	20
 801 00ab 06       		.byte	6
 802 00ac 17       		.byte	23
 803 00ad 01       		.byte	1
 804 00ae 1B       		.byte	27
 805 00af 02       		.byte	2
 806 00b0 21       		.byte	33
 807 00b1 01       		.byte	1
 808 00b2 22       		.byte	34
 809 00b3 0F       		.byte	15
 810 00b4 23       		.byte	35
 811 00b5 04       		.byte	4
 812 00b6 25       		.byte	37
 813 00b7 03       		.byte	3
 814 00b8 28       		.byte	40
 815 00b9 02       		.byte	2
 816 00ba 2A       		.byte	42
 817 00bb 08       		.byte	8
 818 00bc 2E       		.byte	46
 819 00bd 0F       		.byte	15
 820 00be 2F       		.byte	47
 821 00bf 08       		.byte	8
 822 00c0 30       		.byte	48
 823 00c1 06       		.byte	6
 824 00c2 32       		.byte	50
 825 00c3 08       		.byte	8
 826 00c4 33       		.byte	51
 827 00c5 04       		.byte	4
 828 00c6 34       		.byte	52
 829 00c7 08       		.byte	8
 830 00c8 35       		.byte	53
 831 00c9 03       		.byte	3
 832 00ca 36       		.byte	54
 833 00cb 01       		.byte	1
 834 00cc 37       		.byte	55
 835 00cd 08       		.byte	8
 836 00ce 3E       		.byte	62
 837 00cf 50       		.byte	80
 838 00d0 3F       		.byte	63
 839 00d1 40       		.byte	64
 840 00d2 40       		.byte	64
ARM GAS  C:\Users\JAKOVB~2\AppData\Local\Temp\ccztSlne.s 			page 29


 841 00d3 14       		.byte	20
 842 00d4 41       		.byte	65
 843 00d5 03       		.byte	3
 844 00d6 42       		.byte	66
 845 00d7 06       		.byte	6
 846 00d8 49       		.byte	73
 847 00d9 FF       		.byte	-1
 848 00da 4A       		.byte	74
 849 00db FF       		.byte	-1
 850 00dc 4B       		.byte	75
 851 00dd FF       		.byte	-1
 852 00de 4F       		.byte	79
 853 00df 01       		.byte	1
 854 00e0 50       		.byte	80
 855 00e1 18       		.byte	24
 856 00e2 52       		.byte	82
 857 00e3 90       		.byte	-112
 858 00e4 58       		.byte	88
 859 00e5 0B       		.byte	11
 860 00e6 59       		.byte	89
 861 00e7 0B       		.byte	11
 862 00e8 5A       		.byte	90
 863 00e9 0B       		.byte	11
 864 00ea 5B       		.byte	91
 865 00eb 0B       		.byte	11
 866 00ec 5F       		.byte	95
 867 00ed 01       		.byte	1
 868 00ee 60       		.byte	96
 869 00ef 40       		.byte	64
 870 00f0 62       		.byte	98
 871 00f1 40       		.byte	64
 872 00f2 64       		.byte	100
 873 00f3 40       		.byte	64
 874 00f4 65       		.byte	101
 875 00f5 40       		.byte	64
 876 00f6 66       		.byte	102
 877 00f7 80       		.byte	-128
 878 00f8 68       		.byte	104
 879 00f9 80       		.byte	-128
 880 00fa 6A       		.byte	106
 881 00fb 80       		.byte	-128
 882 00fc 6C       		.byte	108
 883 00fd 80       		.byte	-128
 884 00fe 6E       		.byte	110
 885 00ff 80       		.byte	-128
 886 0100 C0       		.byte	-64
 887 0101 51       		.byte	81
 888 0102 C1       		.byte	-63
 889 0103 03       		.byte	3
 890 0104 C2       		.byte	-62
 891 0105 06       		.byte	6
 892 0106 C9       		.byte	-55
 893 0107 FF       		.byte	-1
 894 0108 CA       		.byte	-54
 895 0109 FF       		.byte	-1
 896 010a CB       		.byte	-53
 897 010b FF       		.byte	-1
ARM GAS  C:\Users\JAKOVB~2\AppData\Local\Temp\ccztSlne.s 			page 30


 898 010c CD       		.byte	-51
 899 010d 83       		.byte	-125
 900 010e CE       		.byte	-50
 901 010f 03       		.byte	3
 902 0110 CF       		.byte	-49
 903 0111 01       		.byte	1
 904 0112 D0       		.byte	-48
 905 0113 18       		.byte	24
 906 0114 DA       		.byte	-38
 907 0115 08       		.byte	8
 908 0116 DF       		.byte	-33
 909 0117 01       		.byte	1
 910 0118 E0       		.byte	-32
 911 0119 40       		.byte	64
 912 011a E2       		.byte	-30
 913 011b 40       		.byte	64
 914 011c E4       		.byte	-28
 915 011d 40       		.byte	64
 916 011e E5       		.byte	-27
 917 011f 40       		.byte	64
 918 0120 E6       		.byte	-26
 919 0121 80       		.byte	-128
 920 0122 E8       		.byte	-24
 921 0123 80       		.byte	-128
 922 0124 EA       		.byte	-22
 923 0125 80       		.byte	-128
 924 0126 EC       		.byte	-20
 925 0127 80       		.byte	-128
 926 0128 EE       		.byte	-18
 927 0129 80       		.byte	-128
 928 012a 00       		.byte	0
 929 012b 42       		.byte	66
 930 012c 01       		.byte	1
 931 012d 02       		.byte	2
 932 012e 0A       		.byte	10
 933 012f 10       		.byte	16
 934 0130 10       		.byte	16
 935 0131 82       		.byte	-126
 936 0132 12       		.byte	18
 937 0133 08       		.byte	8
 938 0134 18       		.byte	24
 939 0135 41       		.byte	65
 940 0136 19       		.byte	25
 941 0137 14       		.byte	20
 942 0138 1A       		.byte	26
 943 0139 1A       		.byte	26
 944 013a 1B       		.byte	27
 945 013b 06       		.byte	6
 946 013c 21       		.byte	33
 947 013d 20       		.byte	32
 948 013e 22       		.byte	34
 949 013f 48       		.byte	72
 950 0140 29       		.byte	41
 951 0141 06       		.byte	6
 952 0142 2B       		.byte	43
 953 0143 02       		.byte	2
 954 0144 30       		.byte	48
ARM GAS  C:\Users\JAKOVB~2\AppData\Local\Temp\ccztSlne.s 			page 31


 955 0145 02       		.byte	2
 956 0146 31       		.byte	49
 957 0147 20       		.byte	32
 958 0148 32       		.byte	50
 959 0149 08       		.byte	8
 960 014a 38       		.byte	56
 961 014b 80       		.byte	-128
 962 014c 39       		.byte	57
 963 014d 02       		.byte	2
 964 014e 40       		.byte	64
 965 014f 01       		.byte	1
 966 0150 41       		.byte	65
 967 0151 01       		.byte	1
 968 0152 42       		.byte	66
 969 0153 10       		.byte	16
 970 0154 43       		.byte	67
 971 0155 04       		.byte	4
 972 0156 46       		.byte	70
 973 0157 01       		.byte	1
 974 0158 47       		.byte	71
 975 0159 04       		.byte	4
 976 015a 49       		.byte	73
 977 015b 10       		.byte	16
 978 015c 4E       		.byte	78
 979 015d 05       		.byte	5
 980 015e 70       		.byte	112
 981 015f C2       		.byte	-62
 982 0160 78       		.byte	120
 983 0161 01       		.byte	1
 984 0162 7F       		.byte	127
 985 0163 01       		.byte	1
 986 0164 C0       		.byte	-64
 987 0165 09       		.byte	9
 988 0166 C2       		.byte	-62
 989 0167 04       		.byte	4
 990 0168 C4       		.byte	-60
 991 0169 0B       		.byte	11
 992 016a CA       		.byte	-54
 993 016b 0B       		.byte	11
 994 016c CC       		.byte	-52
 995 016d 07       		.byte	7
 996 016e CE       		.byte	-50
 997 016f 09       		.byte	9
 998 0170 D0       		.byte	-48
 999 0171 5B       		.byte	91
 1000 0172 D2       		.byte	-46
 1001 0173 34       		.byte	52
 1002 0174 DE       		.byte	-34
 1003 0175 11       		.byte	17
 1004 0176 E6       		.byte	-26
 1005 0177 10       		.byte	16
 1006 0178 40       		.byte	64
 1007 0179 51       		.byte	81
 1008 017a 41       		.byte	65
 1009 017b 03       		.byte	3
 1010 017c 42       		.byte	66
 1011 017d 06       		.byte	6
ARM GAS  C:\Users\JAKOVB~2\AppData\Local\Temp\ccztSlne.s 			page 32


 1012 017e 49       		.byte	73
 1013 017f FF       		.byte	-1
 1014 0180 4A       		.byte	74
 1015 0181 FF       		.byte	-1
 1016 0182 4B       		.byte	75
 1017 0183 FF       		.byte	-1
 1018 0184 4D       		.byte	77
 1019 0185 83       		.byte	-125
 1020 0186 4E       		.byte	78
 1021 0187 03       		.byte	3
 1022 0188 4F       		.byte	79
 1023 0189 01       		.byte	1
 1024 018a 50       		.byte	80
 1025 018b 18       		.byte	24
 1026 018c 56       		.byte	86
 1027 018d 08       		.byte	8
 1028 018e 5A       		.byte	90
 1029 018f 08       		.byte	8
 1030 0190 5B       		.byte	91
 1031 0191 04       		.byte	4
 1032 0192 5F       		.byte	95
 1033 0193 01       		.byte	1
 1034 0194 60       		.byte	96
 1035 0195 40       		.byte	64
 1036 0196 62       		.byte	98
 1037 0197 40       		.byte	64
 1038 0198 64       		.byte	100
 1039 0199 40       		.byte	64
 1040 019a 65       		.byte	101
 1041 019b 40       		.byte	64
 1042 019c 66       		.byte	102
 1043 019d 80       		.byte	-128
 1044 019e 68       		.byte	104
 1045 019f 80       		.byte	-128
 1046 01a0 6A       		.byte	106
 1047 01a1 80       		.byte	-128
 1048 01a2 6C       		.byte	108
 1049 01a3 80       		.byte	-128
 1050 01a4 6E       		.byte	110
 1051 01a5 80       		.byte	-128
 1052 01a6 93       		.byte	-109
 1053 01a7 02       		.byte	2
 1054 01a8 9F       		.byte	-97
 1055 01a9 01       		.byte	1
 1056 01aa AB       		.byte	-85
 1057 01ab 03       		.byte	3
 1058 01ac B7       		.byte	-73
 1059 01ad 03       		.byte	3
 1060 01ae C0       		.byte	-64
 1061 01af 14       		.byte	20
 1062 01b0 C1       		.byte	-63
 1063 01b1 03       		.byte	3
 1064 01b2 C2       		.byte	-62
 1065 01b3 06       		.byte	6
 1066 01b4 C5       		.byte	-59
 1067 01b5 EC       		.byte	-20
 1068 01b6 C7       		.byte	-57
ARM GAS  C:\Users\JAKOVB~2\AppData\Local\Temp\ccztSlne.s 			page 33


 1069 01b7 20       		.byte	32
 1070 01b8 C8       		.byte	-56
 1071 01b9 23       		.byte	35
 1072 01ba C9       		.byte	-55
 1073 01bb FF       		.byte	-1
 1074 01bc CA       		.byte	-54
 1075 01bd FF       		.byte	-1
 1076 01be CB       		.byte	-53
 1077 01bf FF       		.byte	-1
 1078 01c0 CD       		.byte	-51
 1079 01c1 83       		.byte	-125
 1080 01c2 CE       		.byte	-50
 1081 01c3 03       		.byte	3
 1082 01c4 CF       		.byte	-49
 1083 01c5 01       		.byte	1
 1084 01c6 D0       		.byte	-48
 1085 01c7 18       		.byte	24
 1086 01c8 D4       		.byte	-44
 1087 01c9 03       		.byte	3
 1088 01ca D9       		.byte	-39
 1089 01cb 04       		.byte	4
 1090 01cc DA       		.byte	-38
 1091 01cd 0B       		.byte	11
 1092 01ce DB       		.byte	-37
 1093 01cf 0B       		.byte	11
 1094 01d0 DF       		.byte	-33
 1095 01d1 05       		.byte	5
 1096 01d2 E0       		.byte	-32
 1097 01d3 40       		.byte	64
 1098 01d4 E2       		.byte	-30
 1099 01d5 40       		.byte	64
 1100 01d6 E4       		.byte	-28
 1101 01d7 40       		.byte	64
 1102 01d8 E5       		.byte	-27
 1103 01d9 40       		.byte	64
 1104 01da E6       		.byte	-26
 1105 01db 80       		.byte	-128
 1106 01dc E8       		.byte	-24
 1107 01dd 80       		.byte	-128
 1108 01de EA       		.byte	-22
 1109 01df 80       		.byte	-128
 1110 01e0 EC       		.byte	-20
 1111 01e1 80       		.byte	-128
 1112 01e2 EE       		.byte	-18
 1113 01e3 80       		.byte	-128
 1114 01e4 20       		.byte	32
 1115 01e5 02       		.byte	2
 1116 01e6 21       		.byte	33
 1117 01e7 80       		.byte	-128
 1118 01e8 2A       		.byte	42
 1119 01e9 10       		.byte	16
 1120 01ea 30       		.byte	48
 1121 01eb 02       		.byte	2
 1122 01ec 31       		.byte	49
 1123 01ed 80       		.byte	-128
 1124 01ee 40       		.byte	64
 1125 01ef 01       		.byte	1
ARM GAS  C:\Users\JAKOVB~2\AppData\Local\Temp\ccztSlne.s 			page 34


 1126 01f0 41       		.byte	65
 1127 01f1 01       		.byte	1
 1128 01f2 43       		.byte	67
 1129 01f3 04       		.byte	4
 1130 01f4 46       		.byte	70
 1131 01f5 01       		.byte	1
 1132 01f6 47       		.byte	71
 1133 01f7 04       		.byte	4
 1134 01f8 49       		.byte	73
 1135 01f9 15       		.byte	21
 1136 01fa 4E       		.byte	78
 1137 01fb 05       		.byte	5
 1138 01fc 51       		.byte	81
 1139 01fd 01       		.byte	1
 1140 01fe 52       		.byte	82
 1141 01ff 01       		.byte	1
 1142 0200 59       		.byte	89
 1143 0201 15       		.byte	21
 1144 0202 5A       		.byte	90
 1145 0203 80       		.byte	-128
 1146 0204 5F       		.byte	95
 1147 0205 80       		.byte	-128
 1148 0206 64       		.byte	100
 1149 0207 01       		.byte	1
 1150 0208 67       		.byte	103
 1151 0209 02       		.byte	2
 1152 020a 78       		.byte	120
 1153 020b 01       		.byte	1
 1154 020c 7B       		.byte	123
 1155 020d 04       		.byte	4
 1156 020e 7F       		.byte	127
 1157 020f 01       		.byte	1
 1158 0210 90       		.byte	-112
 1159 0211 01       		.byte	1
 1160 0212 92       		.byte	-110
 1161 0213 8A       		.byte	-118
 1162 0214 95       		.byte	-107
 1163 0215 02       		.byte	2
 1164 0216 97       		.byte	-105
 1165 0217 02       		.byte	2
 1166 0218 99       		.byte	-103
 1167 0219 10       		.byte	16
 1168 021a 9B       		.byte	-101
 1169 021b 04       		.byte	4
 1170 021c 9C       		.byte	-100
 1171 021d 01       		.byte	1
 1172 021e 9E       		.byte	-98
 1173 021f 01       		.byte	1
 1174 0220 A3       		.byte	-93
 1175 0221 04       		.byte	4
 1176 0222 A4       		.byte	-92
 1177 0223 01       		.byte	1
 1178 0224 CA       		.byte	-54
 1179 0225 04       		.byte	4
 1180 0226 CC       		.byte	-52
 1181 0227 09       		.byte	9
 1182 0228 D0       		.byte	-48
ARM GAS  C:\Users\JAKOVB~2\AppData\Local\Temp\ccztSlne.s 			page 35


 1183 0229 5B       		.byte	91
 1184 022a D2       		.byte	-46
 1185 022b 34       		.byte	52
 1186 022c D6       		.byte	-42
 1187 022d 1F       		.byte	31
 1188 022e D8       		.byte	-40
 1189 022f 10       		.byte	16
 1190 0230 DE       		.byte	-34
 1191 0231 15       		.byte	21
 1192 0232 E2       		.byte	-30
 1193 0233 02       		.byte	2
 1194 0234 40       		.byte	64
 1195 0235 65       		.byte	101
 1196 0236 47       		.byte	71
 1197 0237 20       		.byte	32
 1198 0238 48       		.byte	72
 1199 0239 20       		.byte	32
 1200 023a 49       		.byte	73
 1201 023b FF       		.byte	-1
 1202 023c 4A       		.byte	74
 1203 023d FF       		.byte	-1
 1204 023e 4B       		.byte	75
 1205 023f FF       		.byte	-1
 1206 0240 5A       		.byte	90
 1207 0241 04       		.byte	4
 1208 0242 5F       		.byte	95
 1209 0243 01       		.byte	1
 1210 0244 60       		.byte	96
 1211 0245 80       		.byte	-128
 1212 0246 62       		.byte	98
 1213 0247 40       		.byte	64
 1214 0248 63       		.byte	99
 1215 0249 40       		.byte	64
 1216 024a 64       		.byte	100
 1217 024b 40       		.byte	64
 1218 024c 65       		.byte	101
 1219 024d 40       		.byte	64
 1220 024e 66       		.byte	102
 1221 024f 80       		.byte	-128
 1222 0250 68       		.byte	104
 1223 0251 80       		.byte	-128
 1224 0252 6A       		.byte	106
 1225 0253 80       		.byte	-128
 1226 0254 6C       		.byte	108
 1227 0255 80       		.byte	-128
 1228 0256 6E       		.byte	110
 1229 0257 80       		.byte	-128
 1230 0258 48       		.byte	72
 1231 0259 01       		.byte	1
 1232 025a 4A       		.byte	74
 1233 025b 08       		.byte	8
 1234 025c 50       		.byte	80
 1235 025d 02       		.byte	2
 1236 025e 9F       		.byte	-97
 1237 025f 80       		.byte	-128
 1238 0260 A0       		.byte	-96
 1239 0261 01       		.byte	1
ARM GAS  C:\Users\JAKOVB~2\AppData\Local\Temp\ccztSlne.s 			page 36


 1240 0262 A2       		.byte	-94
 1241 0263 08       		.byte	8
 1242 0264 A4       		.byte	-92
 1243 0265 02       		.byte	2
 1244 0266 AA       		.byte	-86
 1245 0267 08       		.byte	8
 1246 0268 AB       		.byte	-85
 1247 0269 04       		.byte	4
 1248 026a AE       		.byte	-82
 1249 026b 10       		.byte	16
 1250 026c B0       		.byte	-80
 1251 026d 01       		.byte	1
 1252 026e D2       		.byte	-46
 1253 026f 0C       		.byte	12
 1254 0270 EA       		.byte	-22
 1255 0271 80       		.byte	-128
 1256 0272 9F       		.byte	-97
 1257 0273 80       		.byte	-128
 1258 0274 E2       		.byte	-30
 1259 0275 02       		.byte	2
 1260 0276 E6       		.byte	-26
 1261 0277 10       		.byte	16
 1262 0278 87       		.byte	-121
 1263 0279 80       		.byte	-128
 1264 027a 9F       		.byte	-97
 1265 027b 80       		.byte	-128
 1266 027c EE       		.byte	-18
 1267 027d 02       		.byte	2
 1268 027e EE       		.byte	-18
 1269 027f 02       		.byte	2
 1270 0280 31       		.byte	49
 1271 0281 20       		.byte	32
 1272 0282 32       		.byte	50
 1273 0283 02       		.byte	2
 1274 0284 36       		.byte	54
 1275 0285 40       		.byte	64
 1276 0286 37       		.byte	55
 1277 0287 04       		.byte	4
 1278 0288 8F       		.byte	-113
 1279 0289 04       		.byte	4
 1280 028a CC       		.byte	-52
 1281 028b F0       		.byte	-16
 1282 028c 0D       		.byte	13
 1283 028d 02       		.byte	2
 1284 028e 0F       		.byte	15
 1285 028f 80       		.byte	-128
 1286 0290 50       		.byte	80
 1287 0291 08       		.byte	8
 1288 0292 51       		.byte	81
 1289 0293 20       		.byte	32
 1290 0294 57       		.byte	87
 1291 0295 20       		.byte	32
 1292 0296 86       		.byte	-122
 1293 0297 02       		.byte	2
 1294 0298 A5       		.byte	-91
 1295 0299 20       		.byte	32
 1296 029a A6       		.byte	-90
ARM GAS  C:\Users\JAKOVB~2\AppData\Local\Temp\ccztSlne.s 			page 37


 1297 029b 42       		.byte	66
 1298 029c C2       		.byte	-62
 1299 029d 20       		.byte	32
 1300 029e D4       		.byte	-44
 1301 029f 60       		.byte	96
 1302 02a0 E2       		.byte	-30
 1303 02a1 40       		.byte	64
 1304 02a2 A6       		.byte	-90
 1305 02a3 40       		.byte	64
 1306 02a4 A8       		.byte	-88
 1307 02a5 08       		.byte	8
 1308 02a6 AB       		.byte	-85
 1309 02a7 40       		.byte	64
 1310 02a8 AD       		.byte	-83
 1311 02a9 02       		.byte	2
 1312 02aa B3       		.byte	-77
 1313 02ab 20       		.byte	32
 1314 02ac E8       		.byte	-24
 1315 02ad 60       		.byte	96
 1316 02ae EA       		.byte	-22
 1317 02af 80       		.byte	-128
 1318 02b0 A6       		.byte	-90
 1319 02b1 40       		.byte	64
 1320 02b2 8F       		.byte	-113
 1321 02b3 01       		.byte	1
 1322 02b4 E6       		.byte	-26
 1323 02b5 08       		.byte	8
 1324 02b6 84       		.byte	-124
 1325 02b7 08       		.byte	8
 1326 02b8 97       		.byte	-105
 1327 02b9 01       		.byte	1
 1328 02ba 97       		.byte	-105
 1329 02bb 01       		.byte	1
 1330 02bc A4       		.byte	-92
 1331 02bd 08       		.byte	8
 1332 02be 0B       		.byte	11
 1333 02bf 41       		.byte	65
 1334 02c0 0C       		.byte	12
 1335 02c1 08       		.byte	8
 1336 02c2 97       		.byte	-105
 1337 02c3 01       		.byte	1
 1338 02c4 A4       		.byte	-92
 1339 02c5 08       		.byte	8
 1340 02c6 C2       		.byte	-62
 1341 02c7 0E       		.byte	14
 1342 02c8 23       		.byte	35
 1343 02c9 20       		.byte	32
 1344 02ca 87       		.byte	-121
 1345 02cb 20       		.byte	32
 1346 02cc AE       		.byte	-82
 1347 02cd 40       		.byte	64
 1348 02ce C8       		.byte	-56
 1349 02cf 40       		.byte	64
 1350 02d0 E0       		.byte	-32
 1351 02d1 40       		.byte	64
 1352 02d2 EE       		.byte	-18
 1353 02d3 40       		.byte	64
ARM GAS  C:\Users\JAKOVB~2\AppData\Local\Temp\ccztSlne.s 			page 38


 1354 02d4 AF       		.byte	-81
 1355 02d5 40       		.byte	64
 1356 02d6 00       		.byte	0
 1357 02d7 01       		.byte	1
 1358 02d8 08       		.byte	8
 1359 02d9 01       		.byte	1
 1360 02da 0A       		.byte	10
 1361 02db 01       		.byte	1
 1362 02dc 00       		.byte	0
 1363 02dd AB       		.byte	-85
 1364 02de 0000     		.align	2
 1365              		.type	BS_IOPINS0_0_VAL.5013, %object
 1366              		.size	BS_IOPINS0_0_VAL.5013, 8
 1367              	BS_IOPINS0_0_VAL.5013:
 1368 02e0 20       		.byte	32
 1369 02e1 23       		.byte	35
 1370 02e2 03       		.byte	3
 1371 02e3 00       		.byte	0
 1372 02e4 03       		.byte	3
 1373 02e5 00       		.byte	0
 1374 02e6 00       		.byte	0
 1375 02e7 00       		.byte	0
 1376              		.align	2
 1377              		.type	BS_IOPINS0_8_VAL.5014, %object
 1378              		.size	BS_IOPINS0_8_VAL.5014, 10
 1379              	BS_IOPINS0_8_VAL.5014:
 1380 02e8 40       		.byte	64
 1381 02e9 00       		.byte	0
 1382 02ea 00       		.byte	0
 1383 02eb 00       		.byte	0
 1384 02ec 00       		.byte	0
 1385 02ed 00       		.byte	0
 1386 02ee 00       		.byte	0
 1387 02ef 00       		.byte	0
 1388 02f0 C0       		.byte	-64
 1389 02f1 00       		.byte	0
 1390 02f2 0000     		.align	2
 1391              		.type	BS_IOPINS0_1_VAL.5015, %object
 1392              		.size	BS_IOPINS0_1_VAL.5015, 8
 1393              	BS_IOPINS0_1_VAL.5015:
 1394 02f4 00       		.byte	0
 1395 02f5 0B       		.byte	11
 1396 02f6 0B       		.byte	11
 1397 02f7 00       		.byte	0
 1398 02f8 00       		.byte	0
 1399 02f9 00       		.byte	0
 1400 02fa 00       		.byte	0
 1401 02fb 00       		.byte	0
 1402              		.text
 1403              	.Letext0:
 1404              		.file 2 "c:\\program files (x86)\\cypress\\psoc creator\\4.2\\psoc creator\\import\\gnu\\arm\\5.4.
 1405              		.file 3 "Generated_Source\\PSoC5\\cytypes.h"